

Microchip MPLAB XC8 Assembler V2.45 build 20230818022343 
                                                                                               Sat Feb 08 19:23:05 2025

Microchip MPLAB XC8 C Compiler v2.45 (Free license) build 20230818022343 Og1 
     1                           	processor	16F15245
     2                           	pagewidth 120
     3                           	opt	flic
     4                           	psect	idataBIGRAM,global,class=CODE,delta=2,noexec
     5                           	psect	idataBANK1,global,class=CODE,delta=2,noexec
     6                           	psect	stringtext1,global,class=STRCODE,delta=2,noexec
     7                           	psect	stringtext2,global,class=STRCODE,delta=2,noexec
     8                           	psect	stringtext3,global,class=STRCODE,delta=2,noexec
     9                           	psect	stringtext4,global,class=STRCODE,delta=2,noexec
    10                           	psect	stringtext5,global,class=STRCODE,delta=2,noexec
    11                           	psect	stringtext6,global,class=STRCODE,delta=2,noexec
    12                           	psect	cinit,global,class=CODE,merge=1,delta=2
    13                           	psect	bssCOMMON,global,class=COMMON,space=1,delta=1,noexec
    14                           	psect	bssBANK0,global,class=BANK0,space=1,delta=1,noexec
    15                           	psect	dataBANK1,global,class=BANK1,space=1,delta=1,noexec
    16                           	psect	inittext,global,class=CODE,delta=2
    17                           	psect	clrtext,global,class=CODE,delta=2
    18                           	psect	cstackBANK1,global,class=BANK1,space=1,delta=1,noexec
    19                           	psect	cstackCOMMON,global,class=COMMON,space=1,delta=1,noexec
    20                           	psect	cstackBANK0,global,class=BANK0,space=1,delta=1,noexec
    21                           	psect	maintext,global,class=CODE,merge=1,split=1,delta=2
    22                           	psect	text1,local,class=CODE,merge=1,delta=2
    23                           	psect	text2,local,class=CODE,merge=1,delta=2
    24                           	psect	text3,local,class=CODE,merge=1,delta=2
    25                           	psect	text4,local,class=CODE,merge=1,delta=2
    26                           	psect	text5,local,class=CODE,merge=1,delta=2
    27                           	psect	text6,local,class=CODE,merge=1,delta=2
    28                           	psect	text7,local,class=CODE,merge=1,delta=2
    29                           	psect	text8,local,class=CODE,merge=1,delta=2
    30                           	psect	text9,local,class=CODE,merge=1,delta=2,group=1
    31                           	psect	text10,local,class=CODE,merge=1,delta=2,group=1
    32                           	psect	text11,local,class=CODE,merge=1,delta=2,group=1
    33                           	psect	intentry,global,class=CODE,delta=2
    34                           	psect	text13,local,class=CODE,merge=1,delta=2
    35                           	psect	text14,local,class=CODE,merge=1,delta=2
    36                           	psect	text15,local,class=CODE,merge=1,delta=2
    37                           	psect	text16,local,class=CODE,merge=1,delta=2
    38                           	psect	text17,local,class=CODE,merge=1,delta=2
    39                           	psect	text18,local,class=CODE,merge=1,delta=2
    40                           	psect	text19,local,class=CODE,merge=1,delta=2
    41                           	psect	text20,local,class=CODE,merge=1,delta=2
    42                           	psect	text21,local,class=CODE,merge=1,delta=2
    43                           	psect	config,global,abs,ovrld,class=CONFIG,space=4,delta=2,noexec
    44                           	dabs	1,0x620,48
    45                           	dabs	1,0x5A0,80
    46                           	dabs	1,0x520,80
    47                           	dabs	1,0x4BA,54
    48                           	dabs	1,0x4A0,26
    49                           	dabs	1,0x420,80
    50                           	dabs	1,0x3A0,80
    51                           	dabs	1,0x320,80
    52                           	dabs	1,0x2A0,80
    53                           	dabs	1,0x241,47
    54                           	dabs	1,0x22EA,0,_IG_table
    55                           	dabs	1,0x2161,0,_deg2time_coeff
    56                           	dabs	1,0x7E,2
    57     0000                     
    58                           ; Generated 11/01/2024 GMT
    59                           ; 
    60                           ; Copyright Â© 2024, Microchip Technology Inc. and its subsidiaries ("Microchip")
    61                           ; All rights reserved.
    62                           ; 
    63                           ; This software is developed by Microchip Technology Inc. and its subsidiaries ("Microch
      +                          ip").
    64                           ; 
    65                           ; Redistribution and use in source and binary forms, with or without modification, are
    66                           ; permitted provided that the following conditions are met:
    67                           ; 
    68                           ;     1. Redistributions of source code must retain the above copyright notice, this lis
      +                          t of
    69                           ;        conditions and the following disclaimer.
    70                           ; 
    71                           ;     2. Redistributions in binary form must reproduce the above copyright notice, this 
      +                          list
    72                           ;        of conditions and the following disclaimer in the documentation and/or other
    73                           ;        materials provided with the distribution. Publication is not required when
    74                           ;        this file is used in an embedded application.
    75                           ; 
    76                           ;     3. Microchip's name may not be used to endorse or promote products derived from th
      +                          is
    77                           ;        software without specific prior written permission.
    78                           ; 
    79                           ; THIS SOFTWARE IS PROVIDED BY MICROCHIP "AS IS" AND ANY EXPRESS OR IMPLIED WARRANTIES,
    80                           ; INCLUDING, BUT NOT LIMITED TO, THE IMPLIED WARRANTIES OF MERCHANTABILITY AND FITNESS F
      +                          OR
    81                           ; PURPOSE ARE DISCLAIMED.  IN NO EVENT SHALL MICROCHIP BE LIABLE FOR ANY DIRECT, INDIREC
      +                          T,
    82                           ; INCIDENTAL, SPECIAL, EXEMPLARY, OR CONSEQUENTIAL DAMAGES (INCLUDING BUT NOT LIMITED TO
    83                           ; PROCUREMENT OF SUBSTITUTE GOODS OR SERVICES; LOSS OF USE, DATA OR PROFITS; OR BUSINESS
    84                           ; INTERRUPTION) HOWSOEVER CAUSED AND ON ANY THEORY OF LIABILITY, WHETHER IN CONTRACT, ST
      +                          RICT
    85                           ; LIABILITY, OR TORT (INCLUDING NEGLIGENCE OR OTHERWISE) ARISING IN ANY WAY OUT OF THE U
      +                          SE OF
    86                           ; THIS SOFTWARE, EVEN IF ADVISED OF THE POSSIBILITY OF SUCH DAMAGE.
    87                           ; 
    88                           ; 
    89                           ; Code-generator required, PIC16F15245 Definitions
    90                           ; 
    91                           ; SFR Addresses
    92     0000                     	;# 
    93     0001                     	;# 
    94     0002                     	;# 
    95     0003                     	;# 
    96     0004                     	;# 
    97     0005                     	;# 
    98     0006                     	;# 
    99     0007                     	;# 
   100     0008                     	;# 
   101     0009                     	;# 
   102     000A                     	;# 
   103     000B                     	;# 
   104     000C                     	;# 
   105     000D                     	;# 
   106     000E                     	;# 
   107     0012                     	;# 
   108     0013                     	;# 
   109     0014                     	;# 
   110     0018                     	;# 
   111     0019                     	;# 
   112     001A                     	;# 
   113     009A                     	;# 
   114     009B                     	;# 
   115     009B                     	;# 
   116     009C                     	;# 
   117     009D                     	;# 
   118     009E                     	;# 
   119     009F                     	;# 
   120     010C                     	;# 
   121     010D                     	;# 
   122     0119                     	;# 
   123     011A                     	;# 
   124     011B                     	;# 
   125     011B                     	;# 
   126     011C                     	;# 
   127     011D                     	;# 
   128     011E                     	;# 
   129     011F                     	;# 
   130     018C                     	;# 
   131     018D                     	;# 
   132     018E                     	;# 
   133     018F                     	;# 
   134     0190                     	;# 
   135     0191                     	;# 
   136     0192                     	;# 
   137     020C                     	;# 
   138     020C                     	;# 
   139     020D                     	;# 
   140     020E                     	;# 
   141     020E                     	;# 
   142     020F                     	;# 
   143     020F                     	;# 
   144     0210                     	;# 
   145     0210                     	;# 
   146     0211                     	;# 
   147     0211                     	;# 
   148     0211                     	;# 
   149     028C                     	;# 
   150     028C                     	;# 
   151     028D                     	;# 
   152     028D                     	;# 
   153     028E                     	;# 
   154     028F                     	;# 
   155     0290                     	;# 
   156     0291                     	;# 
   157     030C                     	;# 
   158     030C                     	;# 
   159     030D                     	;# 
   160     030E                     	;# 
   161     030F                     	;# 
   162     0310                     	;# 
   163     0310                     	;# 
   164     0311                     	;# 
   165     0312                     	;# 
   166     0313                     	;# 
   167     0314                     	;# 
   168     0314                     	;# 
   169     0315                     	;# 
   170     0316                     	;# 
   171     0318                     	;# 
   172     0318                     	;# 
   173     0319                     	;# 
   174     031A                     	;# 
   175     059C                     	;# 
   176     059C                     	;# 
   177     059D                     	;# 
   178     059D                     	;# 
   179     059E                     	;# 
   180     059F                     	;# 
   181     070C                     	;# 
   182     070D                     	;# 
   183     070E                     	;# 
   184     0716                     	;# 
   185     0717                     	;# 
   186     0718                     	;# 
   187     080C                     	;# 
   188     0811                     	;# 
   189     0813                     	;# 
   190     0814                     	;# 
   191     081A                     	;# 
   192     081A                     	;# 
   193     081B                     	;# 
   194     081C                     	;# 
   195     081C                     	;# 
   196     081D                     	;# 
   197     081E                     	;# 
   198     081F                     	;# 
   199     088E                     	;# 
   200     0890                     	;# 
   201     0891                     	;# 
   202     0892                     	;# 
   203     0893                     	;# 
   204     090C                     	;# 
   205     1E8F                     	;# 
   206     1E90                     	;# 
   207     1E91                     	;# 
   208     1E92                     	;# 
   209     1E93                     	;# 
   210     1E9C                     	;# 
   211     1EA1                     	;# 
   212     1EA2                     	;# 
   213     1EC3                     	;# 
   214     1EC5                     	;# 
   215     1EC6                     	;# 
   216     1EC7                     	;# 
   217     1ECB                     	;# 
   218     1ECB                     	;# 
   219     1ECB                     	;# 
   220     1ECC                     	;# 
   221     1ECC                     	;# 
   222     1ECC                     	;# 
   223     1F10                     	;# 
   224     1F11                     	;# 
   225     1F12                     	;# 
   226     1F14                     	;# 
   227     1F15                     	;# 
   228     1F1C                     	;# 
   229     1F1D                     	;# 
   230     1F1E                     	;# 
   231     1F1F                     	;# 
   232     1F20                     	;# 
   233     1F21                     	;# 
   234     1F22                     	;# 
   235     1F23                     	;# 
   236     1F24                     	;# 
   237     1F25                     	;# 
   238     1F26                     	;# 
   239     1F27                     	;# 
   240     1F38                     	;# 
   241     1F39                     	;# 
   242     1F3A                     	;# 
   243     1F3B                     	;# 
   244     1F3C                     	;# 
   245     1F3D                     	;# 
   246     1F3E                     	;# 
   247     1F3F                     	;# 
   248     1F43                     	;# 
   249     1F44                     	;# 
   250     1F45                     	;# 
   251     1F46                     	;# 
   252     1F47                     	;# 
   253     1F48                     	;# 
   254     1F49                     	;# 
   255     1F4A                     	;# 
   256     1F4E                     	;# 
   257     1F4F                     	;# 
   258     1F50                     	;# 
   259     1F51                     	;# 
   260     1F52                     	;# 
   261     1F53                     	;# 
   262     1F54                     	;# 
   263     1F55                     	;# 
   264     1FE4                     	;# 
   265     1FE5                     	;# 
   266     1FE6                     	;# 
   267     1FE7                     	;# 
   268     1FE8                     	;# 
   269     1FE8                     	;# 
   270     1FE9                     	;# 
   271     1FEA                     	;# 
   272     1FEB                     	;# 
   273     1FED                     	;# 
   274     1FEE                     	;# 
   275     1FEF                     	;_deg2time_coeff
   276                           
   277                           	psect	idataBIGRAM
   278     0517                     __pidataBIGRAM:
   279                           
   280                           ;initializer for _deg2time_coeff
   281     0517  3400               	retlw	0
   282     0518  3400               	retlw	0
   283     0519  3400               	retlw	0
   284     051A  3400               	retlw	0
   285     051B  3400               	retlw	0
   286     051C  3400               	retlw	0
   287     051D  3400               	retlw	0
   288     051E  3400               	retlw	0
   289     051F  3400               	retlw	0
   290     0520  3400               	retlw	0
   291     0521  3400               	retlw	0
   292     0522  3400               	retlw	0
   293     0523  3400               	retlw	0
   294     0524  3400               	retlw	0
   295     0525  3400               	retlw	0
   296     0526  3400               	retlw	0
   297     0527  3400               	retlw	0
   298     0528  3400               	retlw	0
   299     0529  3400               	retlw	0
   300     052A  3400               	retlw	0
   301     052B  3400               	retlw	0
   302     052C  3400               	retlw	0
   303     052D  3400               	retlw	0
   304     052E  3400               	retlw	0
   305     052F  3400               	retlw	0
   306     0530  3400               	retlw	0
   307     0531  3400               	retlw	0
   308     0532  3400               	retlw	0
   309     0533  3400               	retlw	0
   310     0534  3400               	retlw	0
   311     0535  3400               	retlw	0
   312     0536  3400               	retlw	0
   313     0537  3400               	retlw	0
   314     0538  3400               	retlw	0
   315     0539  3400               	retlw	0
   316     053A  3400               	retlw	0
   317     053B  3400               	retlw	0
   318     053C  3400               	retlw	0
   319     053D  3400               	retlw	0
   320     053E  3400               	retlw	0
   321     053F  3400               	retlw	0
   322     0540  3400               	retlw	0
   323     0541  3400               	retlw	0
   324     0542  3400               	retlw	0
   325     0543  3400               	retlw	0
   326     0544  34E4               	retlw	228
   327     0545  3408               	retlw	8
   328     0546  3400               	retlw	0
   329     0547  3455               	retlw	85
   330     0548  3408               	retlw	8
   331     0549  3400               	retlw	0
   332     054A  34D8               	retlw	216
   333     054B  3407               	retlw	7
   334     054C  3400               	retlw	0
   335     054D  3468               	retlw	104
   336     054E  3407               	retlw	7
   337     054F  3400               	retlw	0
   338     0550  3404               	retlw	4
   339     0551  3407               	retlw	7
   340     0552  3400               	retlw	0
   341     0553  34AB               	retlw	171
   342     0554  3406               	retlw	6
   343     0555  3400               	retlw	0
   344     0556  3459               	retlw	89
   345     0557  3406               	retlw	6
   346     0558  3400               	retlw	0
   347     0559  3410               	retlw	16
   348     055A  3406               	retlw	6
   349     055B  3400               	retlw	0
   350     055C  34CC               	retlw	204
   351     055D  3405               	retlw	5
   352     055E  3400               	retlw	0
   353     055F  348E               	retlw	142
   354     0560  3405               	retlw	5
   355     0561  3400               	retlw	0
   356     0562  3455               	retlw	85
   357     0563  3405               	retlw	5
   358     0564  3400               	retlw	0
   359     0565  3421               	retlw	33
   360     0566  3405               	retlw	5
   361     0567  3400               	retlw	0
   362     0568  34F0               	retlw	240
   363     0569  3404               	retlw	4
   364     056A  3400               	retlw	0
   365     056B  34C3               	retlw	195
   366     056C  3404               	retlw	4
   367     056D  3400               	retlw	0
   368     056E  3499               	retlw	153
   369     056F  3404               	retlw	4
   370     0570  3400               	retlw	0
   371     0571  3472               	retlw	114
   372     0572  3404               	retlw	4
   373     0573  3400               	retlw	0
   374     0574  344D               	retlw	77
   375     0575  3404               	retlw	4
   376     0576  3400               	retlw	0
   377     0577  342B               	retlw	43
   378     0578  3404               	retlw	4
   379     0579  3400               	retlw	0
   380     057A  340A               	retlw	10
   381     057B  3404               	retlw	4
   382     057C  3400               	retlw	0
   383     057D  34EC               	retlw	236
   384     057E  3403               	retlw	3
   385     057F  3400               	retlw	0
   386     0580  34CF               	retlw	207
   387     0581  3403               	retlw	3
   388     0582  3400               	retlw	0
   389     0583  34B4               	retlw	180
   390     0584  3403               	retlw	3
   391     0585  3400               	retlw	0
   392     0586  349B               	retlw	155
   393     0587  3403               	retlw	3
   394     0588  3400               	retlw	0
   395     0589  3482               	retlw	130
   396     058A  3403               	retlw	3
   397     058B  3400               	retlw	0
   398     058C  346B               	retlw	107
   399     058D  3403               	retlw	3
   400     058E  3400               	retlw	0
   401     058F  3455               	retlw	85
   402     0590  3403               	retlw	3
   403     0591  3400               	retlw	0
   404     0592  3441               	retlw	65
   405     0593  3403               	retlw	3
   406     0594  3400               	retlw	0
   407     0595  342D               	retlw	45
   408     0596  3403               	retlw	3
   409     0597  3400               	retlw	0
   410     0598  341A               	retlw	26
   411     0599  3403               	retlw	3
   412     059A  3400               	retlw	0
   413     059B  3408               	retlw	8
   414     059C  3403               	retlw	3
   415     059D  3400               	retlw	0
   416     059E  34F7               	retlw	247
   417     059F  3402               	retlw	2
   418     05A0  3400               	retlw	0
   419     05A1  34E6               	retlw	230
   420     05A2  3402               	retlw	2
   421     05A3  3400               	retlw	0
   422     05A4  34D6               	retlw	214
   423     05A5  3402               	retlw	2
   424     05A6  3400               	retlw	0
   425     05A7  34C7               	retlw	199
   426     05A8  3402               	retlw	2
   427     05A9  3400               	retlw	0
   428     05AA  34B9               	retlw	185
   429     05AB  3402               	retlw	2
   430     05AC  3400               	retlw	0
   431     05AD  34AB               	retlw	171
   432     05AE  3402               	retlw	2
   433     05AF  3400               	retlw	0
   434     05B0  349D               	retlw	157
   435     05B1  3402               	retlw	2
   436     05B2  3400               	retlw	0
   437     05B3  3490               	retlw	144
   438     05B4  3402               	retlw	2
   439     05B5  3400               	retlw	0
   440     05B6  3484               	retlw	132
   441     05B7  3402               	retlw	2
   442     05B8  3400               	retlw	0
   443     05B9  3478               	retlw	120
   444     05BA  3402               	retlw	2
   445     05BB  3400               	retlw	0
   446     05BC  346D               	retlw	109
   447     05BD  3402               	retlw	2
   448     05BE  3400               	retlw	0
   449     05BF  3462               	retlw	98
   450     05C0  3402               	retlw	2
   451     05C1  3400               	retlw	0
   452     05C2  3457               	retlw	87
   453     05C3  3402               	retlw	2
   454     05C4  3400               	retlw	0
   455     05C5  344D               	retlw	77
   456     05C6  3402               	retlw	2
   457     05C7  3400               	retlw	0
   458     05C8  3443               	retlw	67
   459     05C9  3402               	retlw	2
   460     05CA  3400               	retlw	0
   461     05CB  3439               	retlw	57
   462     05CC  3402               	retlw	2
   463     05CD  3400               	retlw	0
   464     05CE  3430               	retlw	48
   465     05CF  3402               	retlw	2
   466     05D0  3400               	retlw	0
   467     05D1  3427               	retlw	39
   468     05D2  3402               	retlw	2
   469     05D3  3400               	retlw	0
   470     05D4  341E               	retlw	30
   471     05D5  3402               	retlw	2
   472     05D6  3400               	retlw	0
   473     05D7  3415               	retlw	21
   474     05D8  3402               	retlw	2
   475     05D9  3400               	retlw	0
   476     05DA  340D               	retlw	13
   477     05DB  3402               	retlw	2
   478     05DC  3400               	retlw	0
   479     05DD  3405               	retlw	5
   480     05DE  3402               	retlw	2
   481     05DF  3400               	retlw	0
   482     05E0  34FD               	retlw	253
   483     05E1  3401               	retlw	1
   484     05E2  3400               	retlw	0
   485     05E3  34F6               	retlw	246
   486     05E4  3401               	retlw	1
   487     05E5  3400               	retlw	0
   488     05E6  34EF               	retlw	239
   489     05E7  3401               	retlw	1
   490     05E8  3400               	retlw	0
   491     05E9  34E8               	retlw	232
   492     05EA  3401               	retlw	1
   493     05EB  3400               	retlw	0
   494     05EC  34E1               	retlw	225
   495     05ED  3401               	retlw	1
   496     05EE  3400               	retlw	0
   497     05EF  34DA               	retlw	218
   498     05F0  3401               	retlw	1
   499     05F1  3400               	retlw	0
   500     05F2  34D4               	retlw	212
   501     05F3  3401               	retlw	1
   502     05F4  3400               	retlw	0
   503     05F5  34CD               	retlw	205
   504     05F6  3401               	retlw	1
   505     05F7  3400               	retlw	0
   506     05F8  34C7               	retlw	199
   507     05F9  3401               	retlw	1
   508     05FA  3400               	retlw	0
   509     05FB  34C1               	retlw	193
   510     05FC  3401               	retlw	1
   511     05FD  3400               	retlw	0
   512     05FE  34BB               	retlw	187
   513     05FF  3401               	retlw	1
   514     0600  3400               	retlw	0
   515     0601  34B6               	retlw	182
   516     0602  3401               	retlw	1
   517     0603  3400               	retlw	0
   518     0604  34B0               	retlw	176
   519     0605  3401               	retlw	1
   520     0606  3400               	retlw	0
   521     0607  34AB               	retlw	171
   522     0608  3401               	retlw	1
   523     0609  3400               	retlw	0
   524     060A  34A5               	retlw	165
   525     060B  3401               	retlw	1
   526     060C  3400               	retlw	0
   527     060D  34A0               	retlw	160
   528     060E  3401               	retlw	1
   529     060F  3400               	retlw	0
   530     0610  349B               	retlw	155
   531     0611  3401               	retlw	1
   532     0612  3400               	retlw	0
   533     0613  3496               	retlw	150
   534     0614  3401               	retlw	1
   535     0615  3400               	retlw	0
   536     0616  3492               	retlw	146
   537     0617  3401               	retlw	1
   538     0618  3400               	retlw	0
   539     0619  348D               	retlw	141
   540     061A  3401               	retlw	1
   541     061B  3400               	retlw	0
   542     061C  3488               	retlw	136
   543     061D  3401               	retlw	1
   544     061E  3400               	retlw	0
   545     061F  3484               	retlw	132
   546     0620  3401               	retlw	1
   547     0621  3400               	retlw	0
   548     0622  3480               	retlw	128
   549     0623  3401               	retlw	1
   550     0624  3400               	retlw	0
   551     0625  347B               	retlw	123
   552     0626  3401               	retlw	1
   553     0627  3400               	retlw	0
   554     0628  3477               	retlw	119
   555     0629  3401               	retlw	1
   556     062A  3400               	retlw	0
   557     062B  3473               	retlw	115
   558     062C  3401               	retlw	1
   559     062D  3400               	retlw	0
   560     062E  346F               	retlw	111
   561     062F  3401               	retlw	1
   562     0630  3400               	retlw	0
   563     0631  346B               	retlw	107
   564     0632  3401               	retlw	1
   565     0633  3400               	retlw	0
   566     0634  3467               	retlw	103
   567     0635  3401               	retlw	1
   568     0636  3400               	retlw	0
   569     0637  3464               	retlw	100
   570     0638  3401               	retlw	1
   571     0639  3400               	retlw	0
   572     063A  3460               	retlw	96
   573     063B  3401               	retlw	1
   574     063C  3400               	retlw	0
   575     063D  345C               	retlw	92
   576     063E  3401               	retlw	1
   577     063F  3400               	retlw	0
   578     0640  3459               	retlw	89
   579     0641  3401               	retlw	1
   580     0642  3400               	retlw	0
   581     0643  3455               	retlw	85
   582     0644  3401               	retlw	1
   583     0645  3400               	retlw	0
   584     0646  3452               	retlw	82
   585     0647  3401               	retlw	1
   586     0648  3400               	retlw	0
   587     0649  344F               	retlw	79
   588     064A  3401               	retlw	1
   589     064B  3400               	retlw	0
   590     064C  344B               	retlw	75
   591     064D  3401               	retlw	1
   592     064E  3400               	retlw	0
   593     064F  3448               	retlw	72
   594     0650  3401               	retlw	1
   595     0651  3400               	retlw	0
   596     0652  3445               	retlw	69
   597     0653  3401               	retlw	1
   598     0654  3400               	retlw	0
   599     0655  3442               	retlw	66
   600     0656  3401               	retlw	1
   601     0657  3400               	retlw	0
   602     0658  343F               	retlw	63
   603     0659  3401               	retlw	1
   604     065A  3400               	retlw	0
   605     065B  343C               	retlw	60
   606     065C  3401               	retlw	1
   607     065D  3400               	retlw	0
   608     065E  3439               	retlw	57
   609     065F  3401               	retlw	1
   610     0660  3400               	retlw	0
   611     0661  3436               	retlw	54
   612     0662  3401               	retlw	1
   613     0663  3400               	retlw	0
   614     0664  3434               	retlw	52
   615     0665  3401               	retlw	1
   616     0666  3400               	retlw	0
   617     0667  3431               	retlw	49
   618     0668  3401               	retlw	1
   619     0669  3400               	retlw	0
   620     066A  342E               	retlw	46
   621     066B  3401               	retlw	1
   622     066C  3400               	retlw	0
   623     066D  342B               	retlw	43
   624     066E  3401               	retlw	1
   625     066F  3400               	retlw	0
   626     0670  3429               	retlw	41
   627     0671  3401               	retlw	1
   628     0672  3400               	retlw	0
   629     0673  3426               	retlw	38
   630     0674  3401               	retlw	1
   631     0675  3400               	retlw	0
   632     0676  3424               	retlw	36
   633     0677  3401               	retlw	1
   634     0678  3400               	retlw	0
   635     0679  3421               	retlw	33
   636     067A  3401               	retlw	1
   637     067B  3400               	retlw	0
   638     067C  341F               	retlw	31
   639     067D  3401               	retlw	1
   640     067E  3400               	retlw	0
   641     067F  341C               	retlw	28
   642     0680  3401               	retlw	1
   643     0681  3400               	retlw	0
   644     0682  341A               	retlw	26
   645     0683  3401               	retlw	1
   646     0684  3400               	retlw	0
   647     0685  3418               	retlw	24
   648     0686  3401               	retlw	1
   649     0687  3400               	retlw	0
   650     0688  3416               	retlw	22
   651     0689  3401               	retlw	1
   652     068A  3400               	retlw	0
   653     068B  3413               	retlw	19
   654     068C  3401               	retlw	1
   655     068D  3400               	retlw	0
   656     068E  3411               	retlw	17
   657     068F  3401               	retlw	1
   658     0690  3400               	retlw	0
   659     0691  340F               	retlw	15
   660     0692  3401               	retlw	1
   661     0693  3400               	retlw	0
   662     0694  340D               	retlw	13
   663     0695  3401               	retlw	1
   664     0696  3400               	retlw	0
   665     0697  340B               	retlw	11
   666     0698  3401               	retlw	1
   667     0699  3400               	retlw	0
   668     069A  3409               	retlw	9
   669     069B  3401               	retlw	1
   670     069C  3400               	retlw	0
   671     069D  3407               	retlw	7
   672     069E  3401               	retlw	1
   673     069F  3400               	retlw	0
   674                           
   675                           	psect	idataBANK1
   676     0F03                     __pidataBANK1:
   677                           
   678                           ;initializer for _sw4_pos
   679     0F03  3403               	retlw	3
   680                           
   681                           ;initializer for _sw3_pos
   682     0F04  3403               	retlw	3
   683                           
   684                           ;initializer for _sw2_pos
   685     0F05  3403               	retlw	3
   686                           
   687                           ;initializer for _sw1_pos
   688     0F06  3402               	retlw	2
   689                           
   690                           	psect	stringtext1
   691     1009                     __pstringtext1:
   692     1009                     _min_ret_table:
   693     1009  34DC               	retlw	220
   694     100A  3405               	retlw	5
   695     100B  3414               	retlw	20
   696     100C  3405               	retlw	5
   697     100D  344C               	retlw	76
   698     100E  3404               	retlw	4
   699     100F  3484               	retlw	132
   700     1010  3403               	retlw	3
   701     1011                     __end_of_min_ret_table:
   702                           
   703                           	psect	stringtext2
   704     1011                     __pstringtext2:
   705     1011                     _max_adv_table:
   706     1011  34C4               	retlw	196
   707     1012  3409               	retlw	9
   708     1013  3434               	retlw	52
   709     1014  3408               	retlw	8
   710     1015  34A4               	retlw	164
   711     1016  3406               	retlw	6
   712     1017  3414               	retlw	20
   713     1018  3405               	retlw	5
   714     1019                     __end_of_max_adv_table:
   715                           
   716                           	psect	stringtext3
   717     1019                     __pstringtext3:
   718     1019                     _max_adv_grad_table:
   719     1019  3428               	retlw	40
   720     101A  341E               	retlw	30
   721     101B  3414               	retlw	20
   722     101C  340A               	retlw	10
   723     101D                     __end_of_max_adv_grad_table:
   724                           
   725                           	psect	stringtext4
   726     101D                     __pstringtext4:
   727     101D                     _adv_start_rpm_table:
   728     101D  342D               	retlw	45
   729     101E  3423               	retlw	35
   730     101F  3419               	retlw	25
   731     1020  340F               	retlw	15
   732     1021                     __end_of_adv_start_rpm_table:
   733                           
   734                           	psect	stringtext5
   735     1000                     __pstringtext5:
   736     1000                     _numerator_rpm:
   737     1000  347C               	retlw	124
   738     1001  3492               	retlw	146
   739     1002                     __end_of_numerator_rpm:
   740     0014                     _TRISC	set	20
   741     0013                     _TRISB	set	19
   742     0012                     _TRISA	set	18
   743     001A                     _LATC	set	26
   744     0019                     _LATB	set	25
   745     0018                     _LATA	set	24
   746     000E                     _PORTC	set	14
   747     000D                     _PORTB	set	13
   748     000C                     _PORTA	set	12
   749     000D                     _PORTBbits	set	13
   750     000E                     _PORTCbits	set	14
   751     005E                     _PEIE	set	94
   752     005F                     _GIE	set	95
   753     00C0                     _LATA0	set	192
   754     00D1                     _LATC1	set	209
   755     0064                     _RA4	set	100
   756     0075                     _RC5	set	117
   757     00D2                     _LATC2	set	210
   758     011C                     _SP1BRGH	set	284
   759     011B                     _SP1BRGL	set	283
   760     011E                     _TX1STA	set	286
   761     011D                     _RC1STA	set	285
   762     011F                     _BAUD1CON	set	287
   763     011E                     _TX1STAbits	set	286
   764     011A                     _TX1REG	set	282
   765     08F1                     _TRMT	set	2289
   766     020C                     _TMR1	set	524
   767     020E                     _T1CON	set	526
   768     0211                     _T1CLK	set	529
   769     020C                     _TMR1L	set	524
   770     020D                     _TMR1H	set	525
   771     1070                     _TMR1ON	set	4208
   772     0310                     _CCPR2	set	784
   773     0313                     _CCP2CAP	set	787
   774     030F                     _CCP1CAP	set	783
   775     0312                     _CCP2CON	set	786
   776     030E                     _CCP1CON	set	782
   777     030C                     _CCPR1	set	780
   778     070E                     _PIR2	set	1806
   779     070D                     _PIR1	set	1805
   780     070C                     _PIR0	set	1804
   781     070D                     _PIR1bits	set	1805
   782     38B4                     _IOCIE	set	14516
   783     38BD                     _TMR1IE	set	14525
   784     38C7                     _CCP2IE	set	14535
   785     38BF                     _CCP1IE	set	14527
   786     386D                     _TMR1IF	set	14445
   787     3877                     _CCP2IF	set	14455
   788     386F                     _CCP1IF	set	14447
   789     080C                     _WDTCON	set	2060
   790     0892                     _OSCTUNE	set	2194
   791     0893                     _OSCFRQ	set	2195
   792     0891                     _OSCEN	set	2193
   793     1ECB                     _RX1PPS	set	7883
   794     1EA2                     _CCP2PPS	set	7842
   795     1EA1                     _CCP1PPS	set	7841
   796     1E8F                     _PPSLOCKbits	set	7823
   797     1E8F                     _PPSLOCK	set	7823
   798     1F1E                     _RB6PPS	set	7966
   799     1F21                     _RC1PPS	set	7969
   800     1F52                     _INLVLC	set	8018
   801     1F47                     _INLVLB	set	8007
   802     1F3C                     _INLVLA	set	7996
   803     1F4E                     _ANSELC	set	8014
   804     1F43                     _ANSELB	set	8003
   805     1F38                     _ANSELA	set	7992
   806     F9F2                     _IOCAN2	set	63986
   807     F9FA                     _IOCAF2	set	63994
   808     1002                     STR_1:
   809     1002  3493               	retlw	-109
   810     1003  3463               	retlw	99	;'c'
   811     1004  3492               	retlw	-110
   812     1005  3486               	retlw	-122
   813     1006  340D               	retlw	13
   814     1007  340A               	retlw	10
   815     1008  3400               	retlw	0
   816                           
   817                           	psect	stringtext6
   818     0000                     __pstringtext6:
   819                           
   820                           	psect	cinit
   821     015C                     start_initialization:	
   822                           ; #config settings
   823                           
   824     015C                     __initialization:	;BIGRAM
   825                           
   826                           ; Initialize objects allocated to BIGRAM
   827     015C  3017               	movlw	low __pidataBIGRAM
   828     015D  0084               	movwf	4
   829     015E  3085               	movlw	(high __pidataBIGRAM)| (0+128)
   830     015F  0085               	movwf	5
   831     0160  3061               	movlw	low (0+8545)
   832     0161  0086               	movwf	6
   833     0162  3021               	movlw	high (0+8545)
   834     0163  0087               	movwf	7
   835     0164  3001               	movlw	1
   836     0165  00FF               	movwf	btemp+1
   837     0166  3089               	movlw	137
   838     0167  318F  274D  3181   	fcall	init_ram
   839                           
   840                           ; Initialize objects allocated to BANK1
   841     016A  3003               	movlw	low __pidataBANK1
   842     016B  0084               	movwf	4
   843     016C  308F               	movlw	(high __pidataBANK1)| (0+128)
   844     016D  0085               	movwf	5
   845     016E  30D0               	movlw	low __pdataBANK1
   846     016F  0086               	movwf	6
   847     0170  3000               	movlw	high __pdataBANK1
   848     0171  0087               	movwf	7
   849     0172  3000               	movlw	0
   850     0173  00FF               	movwf	btemp+1
   851     0174  3004               	movlw	4
   852     0175  318F  274D  3181   	fcall	init_ram
   853                           
   854                           ; Clear objects allocated to BIGRAM
   855     0178  30EA               	movlw	low (0+8938)
   856     0179  0084               	movwf	4
   857     017A  3022               	movlw	high (0+8938)
   858     017B  0085               	movwf	5
   859     017C  3006               	movlw	6
   860     017D  00FE               	movwf	btemp
   861     017E  3001               	movlw	1
   862     017F  00FF               	movwf	btemp+1
   863     0180  318F  2741  3181   	fcall	clear_ram0
   864                           
   865                           ; Clear objects allocated to COMMON
   866     0183  01FC               	clrf	__pbssCOMMON& (0+127)
   867     0184  01FD               	clrf	(__pbssCOMMON+1)& (0+127)
   868                           
   869                           ; Clear objects allocated to BANK0
   870     0185  01CC               	clrf	__pbssBANK0& (0+127)
   871     0186  01CD               	clrf	(__pbssBANK0+1)& (0+127)
   872     0187  01CE               	clrf	(__pbssBANK0+2)& (0+127)
   873     0188  01CF               	clrf	(__pbssBANK0+3)& (0+127)
   874     0189  01D0               	clrf	(__pbssBANK0+4)& (0+127)
   875     018A  01D1               	clrf	(__pbssBANK0+5)& (0+127)
   876     018B  01D2               	clrf	(__pbssBANK0+6)& (0+127)
   877     018C                     end_of_initialization:	
   878                           ;End of C runtime variable initialization code
   879                           
   880     018C                     __end_of__initialization:
   881     018C  107E               	bcf	int$flags,0	;clear compiler interrupt flag (level 1)
   882     018D  0140               	movlb	0
   883     018E  318F  2F7B         	ljmp	_main	;jump to C main() function
   884                           
   885                           	psect	bssCOMMON
   886     007C                     __pbssCOMMON:
   887     007C                     _test:
   888     007C                     	ds	1
   889     007D                     _map_sel:
   890     007D                     	ds	1
   891                           
   892                           	psect	bssBANK0
   893     004C                     __pbssBANK0:
   894     004C                     _ig_counter:
   895     004C                     	ds	2
   896     004E                     _pwj_state:
   897     004E                     	ds	1
   898     004F                     _revlimit_state:
   899     004F                     	ds	1
   900     0050                     _EG_state:
   901     0050                     	ds	1
   902     0051                     _orev_counter:
   903     0051                     	ds	1
   904     0052                     _rpm:
   905     0052                     	ds	1
   906                           
   907                           	psect	dataBANK1
   908     00D0                     __pdataBANK1:
   909     00D0                     _sw4_pos:
   910     00D0                     	ds	1
   911     00D1                     _sw3_pos:
   912     00D1                     	ds	1
   913     00D2                     _sw2_pos:
   914     00D2                     	ds	1
   915     00D3                     _sw1_pos:
   916     00D3                     	ds	1
   917                           
   918                           	psect	inittext
   919     0F4D                     init_ram:
   920     0F4D  00FE               	movwf	btemp
   921     0F4E                     initloop:
   922     0F4E  0012               	moviw fsr0++
   923     0F4F  001E               	movwi fsr1++
   924     0F50  3001               	movlw	1
   925     0F51  02FE               	subwf	btemp,f
   926     0F52  3000               	movlw	0
   927     0F53  3BFF               	subwfb	btemp+1,f
   928     0F54  087F               	movf	btemp+1,w
   929     0F55  047E               	iorwf	btemp,w
   930     0F56  1D03               	skipz
   931     0F57  2F4E               	goto	initloop
   932     0F58  3400               	retlw	0
   933                           
   934                           	psect	clrtext
   935     0F41                     clear_ram0:	
   936                           ;	Called with FSR0 containing the base address, and
   937                           ;	btemp/btemp+1 has the size to clear
   938                           
   939     0F41  0064               	clrwdt	;clear the watchdog before getting into this loop
   940     0F42                     clrloop0:
   941     0F42  0180               	clrf	0	;clear RAM location pointed to by FSR
   942     0F43  3101               	addfsr 0,1
   943     0F44  3001               	movlw	1
   944     0F45  02FE               	subwf	btemp,f
   945     0F46  3000               	movlw	0
   946     0F47  3BFF               	subwfb	btemp+1,f
   947     0F48  087F               	movf	btemp+1,w
   948     0F49  047E               	iorwf	btemp,w
   949     0F4A  1D03               	skipz
   950     0F4B  2F42               	goto	clrloop0	;have we reached the end yet?
   951     0F4C  3400               	retlw	0	;all done for this memory range, return
   952                           
   953                           	psect	cstackBANK1
   954     00A0                     __pcstackBANK1:
   955     00A0                     ??_initialize_system:
   956     00A0                     ??_check_sw_state:	
   957                           ; 1 bytes @ 0x0
   958                           
   959     00A0                     ??_ccp1_enable:	
   960                           ; 1 bytes @ 0x0
   961                           
   962     00A0                     ??_EUSART1_IsTxReady:	
   963                           ; 1 bytes @ 0x0
   964                           
   965     00A0                     ??_EUSART1_Write:	
   966                           ; 1 bytes @ 0x0
   967                           
   968     00A0                     ??_ccp2_disable:	
   969                           ; 1 bytes @ 0x0
   970                           
   971     00A0                     ?___wmul:	
   972                           ; 1 bytes @ 0x0
   973                           
   974     00A0                     ?___lwdiv:	
   975                           ; 2 bytes @ 0x0
   976                           
   977     00A0                     EUSART1_Write@txData:	
   978                           ; 2 bytes @ 0x0
   979                           
   980     00A0                     _EUSART1_IsTxReady$282:	
   981                           ; 1 bytes @ 0x0
   982                           
   983     00A0                     ___wmul@multiplier:	
   984                           ; 1 bytes @ 0x0
   985                           
   986     00A0                     ___lwdiv@divisor:	
   987                           ; 2 bytes @ 0x0
   988                           
   989                           
   990                           ; 2 bytes @ 0x0
   991     00A0                     	ds	1
   992     00A1                     ??_putch:
   993     00A1                     putch@txData:	
   994                           ; 1 bytes @ 0x1
   995                           
   996                           
   997                           ; 1 bytes @ 0x1
   998     00A1                     	ds	1
   999     00A2                     ___wmul@multiplicand:
  1000     00A2                     ___lwdiv@dividend:	
  1001                           ; 2 bytes @ 0x2
  1002                           
  1003                           
  1004                           ; 2 bytes @ 0x2
  1005     00A2                     	ds	2
  1006     00A4                     ??___wmul:
  1007     00A4                     ??___lwdiv:	
  1008                           ; 1 bytes @ 0x4
  1009                           
  1010     00A4                     ___wmul@product:	
  1011                           ; 1 bytes @ 0x4
  1012                           
  1013                           
  1014                           ; 2 bytes @ 0x4
  1015     00A4                     	ds	1
  1016     00A5                     ___lwdiv@quotient:
  1017                           
  1018                           ; 2 bytes @ 0x5
  1019     00A5                     	ds	1
  1020     00A6                     ?___tmul:
  1021     00A6                     ___tmul@multiplier:	
  1022                           ; 3 bytes @ 0x6
  1023                           
  1024                           
  1025                           ; 3 bytes @ 0x6
  1026     00A6                     	ds	1
  1027     00A7                     ___lwdiv@counter:
  1028                           
  1029                           ; 1 bytes @ 0x7
  1030     00A7                     	ds	2
  1031     00A9                     ___tmul@multiplicand:
  1032                           
  1033                           ; 3 bytes @ 0x9
  1034     00A9                     	ds	3
  1035     00AC                     ??___tmul:
  1036     00AC                     ___tmul@product:	
  1037                           ; 1 bytes @ 0xC
  1038                           
  1039                           
  1040                           ; 3 bytes @ 0xC
  1041     00AC                     	ds	3
  1042     00AF                     ??_calc_map:
  1043                           
  1044                           ; 1 bytes @ 0xF
  1045     00AF                     	ds	12
  1046     00BB                     calc_map@temp:
  1047                           
  1048                           ; 3 bytes @ 0x1B
  1049     00BB                     	ds	3
  1050     00BE                     calc_map@temp1:
  1051                           
  1052                           ; 3 bytes @ 0x1E
  1053     00BE                     	ds	3
  1054     00C1                     calc_map@coeff_p1_p2:
  1055                           
  1056                           ; 1 bytes @ 0x21
  1057     00C1                     	ds	1
  1058     00C2                     calc_map@coeff_p3_p4:
  1059                           
  1060                           ; 1 bytes @ 0x22
  1061     00C2                     	ds	1
  1062     00C3                     calc_map@p1y:
  1063                           
  1064                           ; 2 bytes @ 0x23
  1065     00C3                     	ds	2
  1066     00C5                     calc_map@p2y:
  1067                           
  1068                           ; 2 bytes @ 0x25
  1069     00C5                     	ds	2
  1070     00C7                     calc_map@p3y:
  1071                           
  1072                           ; 2 bytes @ 0x27
  1073     00C7                     	ds	2
  1074     00C9                     calc_map@p4y:
  1075                           
  1076                           ; 2 bytes @ 0x29
  1077     00C9                     	ds	2
  1078     00CB                     calc_map@p1x:
  1079                           
  1080                           ; 1 bytes @ 0x2B
  1081     00CB                     	ds	1
  1082     00CC                     calc_map@p2x:
  1083                           
  1084                           ; 1 bytes @ 0x2C
  1085     00CC                     	ds	1
  1086     00CD                     calc_map@p3x:
  1087                           
  1088                           ; 1 bytes @ 0x2D
  1089     00CD                     	ds	1
  1090     00CE                     calc_map@p4x:
  1091                           
  1092                           ; 1 bytes @ 0x2E
  1093     00CE                     	ds	1
  1094     00CF                     calc_map@a:
  1095                           
  1096                           ; 1 bytes @ 0x2F
  1097     00CF                     	ds	1
  1098     00D0                     ??_main:
  1099                           
  1100                           	psect	cstackCOMMON
  1101     0070                     __pcstackCOMMON:	
  1102                           ; 1 bytes @ 0x30
  1103                           
  1104     0070                     ?_initialize_system:
  1105     0070                     ?_check_sw_state:	
  1106                           ; 1 bytes @ 0x0
  1107                           
  1108     0070                     ?_calc_map:	
  1109                           ; 1 bytes @ 0x0
  1110                           
  1111     0070                     ?_ccp1_enable:	
  1112                           ; 1 bytes @ 0x0
  1113                           
  1114     0070                     ?_putch:	
  1115                           ; 1 bytes @ 0x0
  1116                           
  1117     0070                     ?_EUSART1_IsTxReady:	
  1118                           ; 1 bytes @ 0x0
  1119                           
  1120     0070                     ?_EUSART1_Write:	
  1121                           ; 1 bytes @ 0x0
  1122                           
  1123     0070                     ?_ccp1_disable:	
  1124                           ; 1 bytes @ 0x0
  1125                           
  1126     0070                     ??_ccp1_disable:	
  1127                           ; 1 bytes @ 0x0
  1128                           
  1129     0070                     ?_ccp2_enable:	
  1130                           ; 1 bytes @ 0x0
  1131                           
  1132     0070                     ??_ccp2_enable:	
  1133                           ; 1 bytes @ 0x0
  1134                           
  1135     0070                     ?_ccp2_disable:	
  1136                           ; 1 bytes @ 0x0
  1137                           
  1138     0070                     ?_ignition_disable:	
  1139                           ; 1 bytes @ 0x0
  1140                           
  1141     0070                     ??_ignition_disable:	
  1142                           ; 1 bytes @ 0x0
  1143                           
  1144     0070                     ?_main:	
  1145                           ; 1 bytes @ 0x0
  1146                           
  1147     0070                     ?_InterruptManager:	
  1148                           ; 1 bytes @ 0x0
  1149                           
  1150     0070                     ?i1_calc_map:	
  1151                           ; 1 bytes @ 0x0
  1152                           
  1153     0070                     ?i1_ccp1_enable:	
  1154                           ; 1 bytes @ 0x0
  1155                           
  1156     0070                     ??i1_ccp1_enable:	
  1157                           ; 1 bytes @ 0x0
  1158                           
  1159     0070                     ?i1_ccp2_disable:	
  1160                           ; 1 bytes @ 0x0
  1161                           
  1162     0070                     ??i1_ccp2_disable:	
  1163                           ; 1 bytes @ 0x0
  1164                           
  1165     0070                     ?i1___wmul:	
  1166                           ; 1 bytes @ 0x0
  1167                           
  1168     0070                     ?i1___lwdiv:	
  1169                           ; 2 bytes @ 0x0
  1170                           
  1171     0070                     i1___wmul@multiplier:	
  1172                           ; 2 bytes @ 0x0
  1173                           
  1174     0070                     i1___lwdiv@divisor:	
  1175                           ; 2 bytes @ 0x0
  1176                           
  1177                           
  1178                           ; 2 bytes @ 0x0
  1179     0070                     	ds	2
  1180     0072                     i1___wmul@multiplicand:
  1181     0072                     i1___lwdiv@dividend:	
  1182                           ; 2 bytes @ 0x2
  1183                           
  1184                           
  1185                           ; 2 bytes @ 0x2
  1186     0072                     	ds	2
  1187     0074                     ??i1___wmul:
  1188     0074                     ??i1___lwdiv:	
  1189                           ; 1 bytes @ 0x4
  1190                           
  1191     0074                     i1___wmul@product:	
  1192                           ; 1 bytes @ 0x4
  1193                           
  1194                           
  1195                           ; 2 bytes @ 0x4
  1196     0074                     	ds	1
  1197     0075                     i1___lwdiv@quotient:
  1198                           
  1199                           ; 2 bytes @ 0x5
  1200     0075                     	ds	1
  1201     0076                     ?i1___tmul:
  1202     0076                     i1___tmul@multiplier:	
  1203                           ; 3 bytes @ 0x6
  1204                           
  1205                           
  1206                           ; 3 bytes @ 0x6
  1207     0076                     	ds	1
  1208     0077                     i1___lwdiv@counter:
  1209                           
  1210                           ; 1 bytes @ 0x7
  1211     0077                     	ds	2
  1212     0079                     i1___tmul@multiplicand:
  1213                           
  1214                           ; 3 bytes @ 0x9
  1215     0079                     	ds	3
  1216     007C                     ??i1___tmul:
  1217                           
  1218                           	psect	cstackBANK0
  1219     0020                     __pcstackBANK0:	
  1220                           ; 1 bytes @ 0xC
  1221                           
  1222     0020                     i1___tmul@product:
  1223                           
  1224                           ; 3 bytes @ 0x0
  1225     0020                     	ds	3
  1226     0023                     ??i1_calc_map:
  1227                           
  1228                           ; 1 bytes @ 0x3
  1229     0023                     	ds	12
  1230     002F                     i1calc_map@temp:
  1231                           
  1232                           ; 3 bytes @ 0xF
  1233     002F                     	ds	3
  1234     0032                     i1calc_map@temp1:
  1235                           
  1236                           ; 3 bytes @ 0x12
  1237     0032                     	ds	3
  1238     0035                     i1calc_map@coeff_p1_p2:
  1239                           
  1240                           ; 1 bytes @ 0x15
  1241     0035                     	ds	1
  1242     0036                     i1calc_map@coeff_p3_p4:
  1243                           
  1244                           ; 1 bytes @ 0x16
  1245     0036                     	ds	1
  1246     0037                     i1calc_map@p1y:
  1247                           
  1248                           ; 2 bytes @ 0x17
  1249     0037                     	ds	2
  1250     0039                     i1calc_map@p2y:
  1251                           
  1252                           ; 2 bytes @ 0x19
  1253     0039                     	ds	2
  1254     003B                     i1calc_map@p3y:
  1255                           
  1256                           ; 2 bytes @ 0x1B
  1257     003B                     	ds	2
  1258     003D                     i1calc_map@p4y:
  1259                           
  1260                           ; 2 bytes @ 0x1D
  1261     003D                     	ds	2
  1262     003F                     i1calc_map@p1x:
  1263                           
  1264                           ; 1 bytes @ 0x1F
  1265     003F                     	ds	1
  1266     0040                     i1calc_map@p2x:
  1267                           
  1268                           ; 1 bytes @ 0x20
  1269     0040                     	ds	1
  1270     0041                     i1calc_map@p3x:
  1271                           
  1272                           ; 1 bytes @ 0x21
  1273     0041                     	ds	1
  1274     0042                     i1calc_map@p4x:
  1275                           
  1276                           ; 1 bytes @ 0x22
  1277     0042                     	ds	1
  1278     0043                     i1calc_map@a:
  1279                           
  1280                           ; 1 bytes @ 0x23
  1281     0043                     	ds	1
  1282     0044                     ??_InterruptManager:
  1283                           
  1284                           ; 1 bytes @ 0x24
  1285     0044                     	ds	4
  1286     0048                     InterruptManager@t1_count:
  1287                           
  1288                           ; 2 bytes @ 0x28
  1289     0048                     	ds	2
  1290     004A                     InterruptManager@pu1_2_period_count:
  1291                           
  1292                           ; 2 bytes @ 0x2A
  1293     004A                     	ds	2
  1294                           
  1295                           	psect	maintext
  1296     0F7B                     __pmaintext:	
  1297 ;;
  1298 ;;Main: autosize = 0, tempsize = 0, incstack = 0, save=0
  1299 ;;
  1300 ;; *************** function _main *****************
  1301 ;; Defined at:
  1302 ;;		line 157 in file "main.c"
  1303 ;; Parameters:    Size  Location     Type
  1304 ;;		None
  1305 ;; Auto vars:     Size  Location     Type
  1306 ;;		None
  1307 ;; Return value:  Size  Location     Type
  1308 ;;                  1    wreg      void 
  1309 ;; Registers used:
  1310 ;;		wreg, fsr0l, fsr0h, fsr1l, fsr1h, status,2, status,0, pclath, cstack
  1311 ;; Tracked objects:
  1312 ;;		On entry : B3F/0
  1313 ;;		On exit  : 0/0
  1314 ;;		Unchanged: 0/0
  1315 ;; Data sizes:     COMMON   BANK0   BANK1   BANK2   BANK3   BANK4   BANK5   BANK6   BANK7   BANK8   BANK9  BANK10  BANK1
      +1  BANK12
  1316 ;;      Params:         0       0       0       0       0       0       0       0       0       0       0       0       
      +0       0
  1317 ;;      Locals:         0       0       0       0       0       0       0       0       0       0       0       0       
      +0       0
  1318 ;;      Temps:          0       0       0       0       0       0       0       0       0       0       0       0       
      +0       0
  1319 ;;      Totals:         0       0       0       0       0       0       0       0       0       0       0       0       
      +0       0
  1320 ;;Total ram usage:        0 bytes
  1321 ;; Hardware stack levels required when called: 5
  1322 ;; This function calls:
  1323 ;;		_calc_map
  1324 ;;		_ccp1_enable
  1325 ;;		_check_sw_state
  1326 ;;		_initialize_system
  1327 ;;		_putch
  1328 ;; This function is called by:
  1329 ;;		Startup code after reset
  1330 ;; This function uses a non-reentrant model
  1331 ;;
  1332                           
  1333     0F7B                     _main:	
  1334                           ;psect for function _main
  1335                           
  1336     0F7B                     l1864:	
  1337                           ;incstack = 0
  1338                           ; Regs used in _main: [wreg-fsr1h+status,2+status,0+pclath+cstack]
  1339                           
  1340                           
  1341                           ;main.c: 158:     initialize_system();
  1342     0F7B  3186  26A0  318F   	fcall	_initialize_system
  1343     0F7E                     l1866:
  1344                           
  1345                           ;main.c: 159:     LATC2 = (0);
  1346     0F7E  0140               	movlb	0	; select bank0
  1347     0F7F  111A               	bcf	26,2	;volatile
  1348     0F80                     l1868:
  1349                           
  1350                           ;main.c: 160:     check_sw_state();
  1351     0F80  3187  2705  318F   	fcall	_check_sw_state
  1352     0F83                     l1870:
  1353                           
  1354                           ;main.c: 161:     calc_map();
  1355     0F83  3183  2358  318F   	fcall	_calc_map
  1356     0F86                     l1872:
  1357                           
  1358                           ;main.c: 162:     ccp1_enable();
  1359     0F86  318F  272E  318F   	fcall	_ccp1_enable
  1360     0F89                     l1874:
  1361                           
  1362                           ;main.c: 165:         check_sw_state();
  1363     0F89  3187  2705  318F   	fcall	_check_sw_state
  1364     0F8C  0064               	clrwdt	;# 
  1365     0F8D                     l1876:
  1366                           
  1367                           ;main.c: 167:         putch("c\r\n");
  1368     0F8D  3002               	movlw	(low (STR_1| (0+32768)))& (0+255)
  1369     0F8E  318F  2759  318F   	fcall	_putch
  1370     0F91  2F89               	goto	l1874
  1371     0F92  3181  295A         	ljmp	start
  1372     0F94                     __end_of_main:
  1373                           
  1374                           	psect	text1
  1375     0F59                     __ptext1:	
  1376 ;; *************** function _putch *****************
  1377 ;; Defined at:
  1378 ;;		line 191 in file "main.c"
  1379 ;; Parameters:    Size  Location     Type
  1380 ;;  txData          1    wreg     unsigned char 
  1381 ;; Auto vars:     Size  Location     Type
  1382 ;;  txData          1    1[BANK1 ] unsigned char 
  1383 ;; Return value:  Size  Location     Type
  1384 ;;                  1    wreg      void 
  1385 ;; Registers used:
  1386 ;;		wreg, status,2, status,0, pclath, cstack
  1387 ;; Tracked objects:
  1388 ;;		On entry : 0/0
  1389 ;;		On exit  : 0/0
  1390 ;;		Unchanged: 0/0
  1391 ;; Data sizes:     COMMON   BANK0   BANK1   BANK2   BANK3   BANK4   BANK5   BANK6   BANK7   BANK8   BANK9  BANK10  BANK1
      +1  BANK12
  1392 ;;      Params:         0       0       0       0       0       0       0       0       0       0       0       0       
      +0       0
  1393 ;;      Locals:         0       0       1       0       0       0       0       0       0       0       0       0       
      +0       0
  1394 ;;      Temps:          0       0       0       0       0       0       0       0       0       0       0       0       
      +0       0
  1395 ;;      Totals:         0       0       1       0       0       0       0       0       0       0       0       0       
      +0       0
  1396 ;;Total ram usage:        1 bytes
  1397 ;; Hardware stack levels used: 1
  1398 ;; Hardware stack levels required when called: 4
  1399 ;; This function calls:
  1400 ;;		_EUSART1_IsTxReady
  1401 ;;		_EUSART1_Write
  1402 ;; This function is called by:
  1403 ;;		_main
  1404 ;; This function uses a non-reentrant model
  1405 ;;
  1406                           
  1407     0F59                     _putch:	
  1408                           ;psect for function _putch
  1409                           
  1410                           
  1411                           ;incstack = 0
  1412                           ; Regs used in _putch: [wreg+status,2+status,0+pclath+cstack]
  1413                           ;putch@txData stored from wreg
  1414     0F59  0141               	movlb	1	; select bank1
  1415     0F5A  00A1               	movwf	putch@txData^(0+128)
  1416     0F5B                     l1760:
  1417     0F5B                     l1762:	
  1418                           ;main.c: 192:     while (!(EUSART1_IsTxReady()));
  1419                           
  1420     0F5B  318F  2769  318F   	fcall	_EUSART1_IsTxReady
  1421     0F5E  3A00               	xorlw	0
  1422     0F5F  1903               	skipnz
  1423     0F60  2F62               	goto	u1211
  1424     0F61  2F63               	goto	u1210
  1425     0F62                     u1211:
  1426     0F62  2F5B               	goto	l1762
  1427     0F63                     u1210:
  1428     0F63                     l1764:
  1429                           
  1430                           ;main.c: 193:     return EUSART1_Write(txData);;	Return value of _putch is never used
  1431     0F63  0141               	movlb	1	; select bank1
  1432     0F64  0821               	movf	putch@txData^(0+128),w
  1433     0F65  318F  2716  318F   	fcall	_EUSART1_Write
  1434     0F68                     l224:
  1435     0F68  0008               	return
  1436     0F69                     __end_of_putch:
  1437                           
  1438                           	psect	text2
  1439     0F16                     __ptext2:	
  1440 ;; *************** function _EUSART1_Write *****************
  1441 ;; Defined at:
  1442 ;;		line 196 in file "main.c"
  1443 ;; Parameters:    Size  Location     Type
  1444 ;;  txData          1    wreg     unsigned char 
  1445 ;; Auto vars:     Size  Location     Type
  1446 ;;  txData          1    0[BANK1 ] unsigned char 
  1447 ;; Return value:  Size  Location     Type
  1448 ;;                  1    wreg      void 
  1449 ;; Registers used:
  1450 ;;		wreg
  1451 ;; Tracked objects:
  1452 ;;		On entry : 0/0
  1453 ;;		On exit  : 0/0
  1454 ;;		Unchanged: 0/0
  1455 ;; Data sizes:     COMMON   BANK0   BANK1   BANK2   BANK3   BANK4   BANK5   BANK6   BANK7   BANK8   BANK9  BANK10  BANK1
      +1  BANK12
  1456 ;;      Params:         0       0       0       0       0       0       0       0       0       0       0       0       
      +0       0
  1457 ;;      Locals:         0       0       1       0       0       0       0       0       0       0       0       0       
      +0       0
  1458 ;;      Temps:          0       0       0       0       0       0       0       0       0       0       0       0       
      +0       0
  1459 ;;      Totals:         0       0       1       0       0       0       0       0       0       0       0       0       
      +0       0
  1460 ;;Total ram usage:        1 bytes
  1461 ;; Hardware stack levels used: 1
  1462 ;; Hardware stack levels required when called: 3
  1463 ;; This function calls:
  1464 ;;		Nothing
  1465 ;; This function is called by:
  1466 ;;		_putch
  1467 ;; This function uses a non-reentrant model
  1468 ;;
  1469                           
  1470     0F16                     _EUSART1_Write:	
  1471                           ;psect for function _EUSART1_Write
  1472                           
  1473                           
  1474                           ;incstack = 0
  1475                           ; Regs used in _EUSART1_Write: [wreg]
  1476                           ;EUSART1_Write@txData stored from wreg
  1477     0F16  0141               	movlb	1	; select bank1
  1478     0F17  00A0               	movwf	EUSART1_Write@txData^(0+128)
  1479     0F18                     l1444:
  1480                           
  1481                           ;main.c: 197:     TX1REG = txData;
  1482     0F18  0820               	movf	EUSART1_Write@txData^(0+128),w
  1483     0F19  0142               	movlb	2	; select bank2
  1484     0F1A  009A               	movwf	26	;volatile
  1485     0F1B                     l227:
  1486     0F1B  0008               	return
  1487     0F1C                     __end_of_EUSART1_Write:
  1488                           
  1489                           	psect	text3
  1490     0F69                     __ptext3:	
  1491 ;; *************** function _EUSART1_IsTxReady *****************
  1492 ;; Defined at:
  1493 ;;		line 200 in file "main.c"
  1494 ;; Parameters:    Size  Location     Type
  1495 ;;		None
  1496 ;; Auto vars:     Size  Location     Type
  1497 ;;		None
  1498 ;; Return value:  Size  Location     Type
  1499 ;;                  1    wreg      _Bool 
  1500 ;; Registers used:
  1501 ;;		wreg, status,2
  1502 ;; Tracked objects:
  1503 ;;		On entry : 0/0
  1504 ;;		On exit  : 0/0
  1505 ;;		Unchanged: 0/0
  1506 ;; Data sizes:     COMMON   BANK0   BANK1   BANK2   BANK3   BANK4   BANK5   BANK6   BANK7   BANK8   BANK9  BANK10  BANK1
      +1  BANK12
  1507 ;;      Params:         0       0       0       0       0       0       0       0       0       0       0       0       
      +0       0
  1508 ;;      Locals:         0       0       1       0       0       0       0       0       0       0       0       0       
      +0       0
  1509 ;;      Temps:          0       0       0       0       0       0       0       0       0       0       0       0       
      +0       0
  1510 ;;      Totals:         0       0       1       0       0       0       0       0       0       0       0       0       
      +0       0
  1511 ;;Total ram usage:        1 bytes
  1512 ;; Hardware stack levels used: 1
  1513 ;; Hardware stack levels required when called: 3
  1514 ;; This function calls:
  1515 ;;		Nothing
  1516 ;; This function is called by:
  1517 ;;		_putch
  1518 ;; This function uses a non-reentrant model
  1519 ;;
  1520                           
  1521     0F69                     _EUSART1_IsTxReady:	
  1522                           ;psect for function _EUSART1_IsTxReady
  1523                           
  1524     0F69                     l1432:	
  1525                           ;incstack = 0
  1526                           ; Regs used in _EUSART1_IsTxReady: [wreg+status,2]
  1527                           
  1528                           
  1529                           ;main.c: 201:     return (_Bool) (PIR1bits.TX1IF && TX1STAbits.TXEN);
  1530     0F69  0141               	movlb	1	; select bank1
  1531     0F6A  01A0               	clrf	_EUSART1_IsTxReady$282^(0+128)
  1532     0F6B                     l1434:
  1533     0F6B  014E               	movlb	14	; select bank14
  1534     0F6C  1D8D               	btfss	13,3	;volatile
  1535     0F6D  2F6F               	goto	u791
  1536     0F6E  2F70               	goto	u790
  1537     0F6F                     u791:
  1538     0F6F  2F78               	goto	l1440
  1539     0F70                     u790:
  1540     0F70                     l1436:
  1541     0F70  0142               	movlb	2	; select bank2
  1542     0F71  1E9E               	btfss	30,5	;volatile
  1543     0F72  2F74               	goto	u801
  1544     0F73  2F75               	goto	u800
  1545     0F74                     u801:
  1546     0F74  2F78               	goto	l1440
  1547     0F75                     u800:
  1548     0F75                     l1438:
  1549     0F75  0141               	movlb	1	; select bank1
  1550     0F76  01A0               	clrf	_EUSART1_IsTxReady$282^(0+128)
  1551     0F77  0AA0               	incf	_EUSART1_IsTxReady$282^(0+128),f
  1552     0F78                     l1440:
  1553     0F78  0141               	movlb	1	; select bank1
  1554     0F79  0820               	movf	_EUSART1_IsTxReady$282^(0+128),w
  1555     0F7A                     l232:
  1556     0F7A  0008               	return
  1557     0F7B                     __end_of_EUSART1_IsTxReady:
  1558                           
  1559                           	psect	text4
  1560     06A0                     __ptext4:	
  1561 ;; *************** function _initialize_system *****************
  1562 ;; Defined at:
  1563 ;;		line 434 in file "main.c"
  1564 ;; Parameters:    Size  Location     Type
  1565 ;;		None
  1566 ;; Auto vars:     Size  Location     Type
  1567 ;;		None
  1568 ;; Return value:  Size  Location     Type
  1569 ;;                  1    wreg      void 
  1570 ;; Registers used:
  1571 ;;		wreg, status,2, status,0, pclath, cstack
  1572 ;; Tracked objects:
  1573 ;;		On entry : 0/0
  1574 ;;		On exit  : 0/0
  1575 ;;		Unchanged: 0/0
  1576 ;; Data sizes:     COMMON   BANK0   BANK1   BANK2   BANK3   BANK4   BANK5   BANK6   BANK7   BANK8   BANK9  BANK10  BANK1
      +1  BANK12
  1577 ;;      Params:         0       0       0       0       0       0       0       0       0       0       0       0       
      +0       0
  1578 ;;      Locals:         0       0       0       0       0       0       0       0       0       0       0       0       
      +0       0
  1579 ;;      Temps:          0       0       0       0       0       0       0       0       0       0       0       0       
      +0       0
  1580 ;;      Totals:         0       0       0       0       0       0       0       0       0       0       0       0       
      +0       0
  1581 ;;Total ram usage:        0 bytes
  1582 ;; Hardware stack levels used: 1
  1583 ;; Hardware stack levels required when called: 4
  1584 ;; This function calls:
  1585 ;;		_ccp2_disable
  1586 ;; This function is called by:
  1587 ;;		_main
  1588 ;; This function uses a non-reentrant model
  1589 ;;
  1590                           
  1591     06A0                     _initialize_system:	
  1592                           ;psect for function _initialize_system
  1593                           
  1594     06A0                     l1568:	
  1595                           ;incstack = 0
  1596                           ; Regs used in _initialize_system: [wreg+status,2+status,0+pclath+cstack]
  1597                           
  1598                           
  1599                           ;main.c: 436:     OSCEN = 0x40;
  1600     06A0  3040               	movlw	64
  1601     06A1  0151               	movlb	17	; select bank17
  1602     06A2  0091               	movwf	17	;volatile
  1603                           
  1604                           ;main.c: 437:     OSCFRQ = 0x05;
  1605     06A3  3005               	movlw	5
  1606     06A4  0093               	movwf	19	;volatile
  1607     06A5                     l1570:
  1608                           
  1609                           ;main.c: 438:     OSCTUNE = 0X00;
  1610     06A5  0192               	clrf	18	;volatile
  1611     06A6                     l1572:
  1612                           
  1613                           ;main.c: 441:     PORTA = 0x00;
  1614     06A6  0140               	movlb	0	; select bank0
  1615     06A7  018C               	clrf	12	;volatile
  1616     06A8                     l1574:
  1617                           
  1618                           ;main.c: 442:     PORTB = 0x00;
  1619     06A8  018D               	clrf	13	;volatile
  1620     06A9                     l1576:
  1621                           
  1622                           ;main.c: 443:     PORTC = 0x00;
  1623     06A9  018E               	clrf	14	;volatile
  1624     06AA                     l1578:
  1625                           
  1626                           ;main.c: 444:     LATA = 0x00;
  1627     06AA  0198               	clrf	24	;volatile
  1628     06AB                     l1580:
  1629                           
  1630                           ;main.c: 445:     LATB = 0x00;
  1631     06AB  0199               	clrf	25	;volatile
  1632     06AC                     l1582:
  1633                           
  1634                           ;main.c: 446:     LATC = 0x00;
  1635     06AC  019A               	clrf	26	;volatile
  1636     06AD                     l1584:
  1637                           
  1638                           ;main.c: 447:     ANSELA = 0x00;
  1639     06AD  017E               	movlb	62	; select bank62
  1640     06AE  01B8               	clrf	56	;volatile
  1641     06AF                     l1586:
  1642                           
  1643                           ;main.c: 448:     ANSELB = 0x00;
  1644     06AF  01C3               	clrf	67	;volatile
  1645     06B0                     l1588:
  1646                           
  1647                           ;main.c: 449:     ANSELC = 0x00;
  1648     06B0  01CE               	clrf	78	;volatile
  1649                           
  1650                           ;main.c: 452:     TRISA = 0b00110100;
  1651     06B1  3034               	movlw	52
  1652     06B2  0140               	movlb	0	; select bank0
  1653     06B3  0092               	movwf	18	;volatile
  1654                           
  1655                           ;main.c: 453:     TRISB = 0b10110000;
  1656     06B4  30B0               	movlw	176
  1657     06B5  0093               	movwf	19	;volatile
  1658                           
  1659                           ;main.c: 454:     TRISC = 0b11111001;
  1660     06B6  30F9               	movlw	249
  1661     06B7  0094               	movwf	20	;volatile
  1662                           
  1663                           ;main.c: 455:     INLVLA = 0b00110100;
  1664     06B8  3034               	movlw	52
  1665     06B9  017E               	movlb	62	; select bank62
  1666     06BA  00BC               	movwf	60	;volatile
  1667                           
  1668                           ;main.c: 456:     INLVLB = 0b10110000;
  1669     06BB  30B0               	movlw	176
  1670     06BC  00C7               	movwf	71	;volatile
  1671                           
  1672                           ;main.c: 457:     INLVLC = 0b11111001;
  1673     06BD  30F9               	movlw	249
  1674     06BE  00D2               	movwf	82	;volatile
  1675                           
  1676                           ;main.c: 460:     T1CLK = 0b00000001;
  1677     06BF  3001               	movlw	1
  1678     06C0  0144               	movlb	4	; select bank4
  1679     06C1  0091               	movwf	17	;volatile
  1680                           
  1681                           ;main.c: 461:     T1CON = 0b00110000;
  1682     06C2  3030               	movlw	48
  1683     06C3  008E               	movwf	14	;volatile
  1684     06C4                     l1590:
  1685                           
  1686                           ;main.c: 462:     TMR1 = 0x0000;
  1687     06C4  018C               	clrf	12	;volatile
  1688     06C5  018D               	clrf	13	;volatile
  1689     06C6                     l1592:
  1690                           
  1691                           ;main.c: 467:     CCP1CAP = 0x0;
  1692     06C6  0146               	movlb	6	; select bank6
  1693     06C7  018F               	clrf	15	;volatile
  1694     06C8                     l1594:
  1695                           
  1696                           ;main.c: 468:     CCP2CAP = 0x0;
  1697     06C8  0193               	clrf	19	;volatile
  1698     06C9                     l1596:
  1699                           
  1700                           ;main.c: 469:     CCPR1 = 0x0000;
  1701     06C9  018C               	clrf	12	;volatile
  1702     06CA  018D               	clrf	13	;volatile
  1703     06CB                     l1598:
  1704                           
  1705                           ;main.c: 470:     CCPR2 = 0x0000;
  1706     06CB  0190               	clrf	16	;volatile
  1707     06CC  0191               	clrf	17	;volatile
  1708     06CD                     l1600:
  1709                           
  1710                           ;main.c: 473:     IOCAN2 = 1;
  1711     06CD  017E               	movlb	62	; select bank62
  1712     06CE  153E               	bsf	62,2	;volatile
  1713     06CF                     l1602:
  1714                           
  1715                           ;main.c: 476:     PPSLOCK = 0x55;
  1716     06CF  3055               	movlw	85
  1717     06D0  017D               	movlb	61	; select bank61
  1718     06D1  008F               	movwf	15	;volsfr
  1719     06D2                     l1604:
  1720                           
  1721                           ;main.c: 477:     PPSLOCK = 0xAA;
  1722     06D2  30AA               	movlw	170
  1723     06D3  008F               	movwf	15	;volsfr
  1724     06D4                     l1606:
  1725                           
  1726                           ;main.c: 478:     PPSLOCKbits.PPSLOCKED = 0;
  1727     06D4  100F               	bcf	15,0	;volsfr
  1728     06D5                     l1608:
  1729                           
  1730                           ;main.c: 479:     CCP1PPS = 0x10;
  1731     06D5  3010               	movlw	16
  1732     06D6  00A1               	movwf	33	;volatile
  1733     06D7                     l1610:
  1734                           
  1735                           ;main.c: 480:     CCP2PPS = 0b00010001;
  1736     06D7  3011               	movlw	17
  1737     06D8  00A2               	movwf	34	;volatile
  1738     06D9                     l1612:
  1739                           
  1740                           ;main.c: 481:     RC1PPS = 0x02;
  1741     06D9  3002               	movlw	2
  1742     06DA  017E               	movlb	62	; select bank62
  1743     06DB  00A1               	movwf	33	;volatile
  1744     06DC                     l1614:
  1745                           
  1746                           ;main.c: 482:     RX1PPS = 0x0F;
  1747     06DC  300F               	movlw	15
  1748     06DD  017D               	movlb	61	; select bank61
  1749     06DE  00CB               	movwf	75	;volatile
  1750     06DF                     l1616:
  1751                           
  1752                           ;main.c: 483:     RB6PPS = 0x05;
  1753     06DF  3005               	movlw	5
  1754     06E0  017E               	movlb	62	; select bank62
  1755     06E1  009E               	movwf	30	;volatile
  1756     06E2                     l1618:
  1757                           
  1758                           ;main.c: 484:     PPSLOCK = 0x55;
  1759     06E2  3055               	movlw	85
  1760     06E3  017D               	movlb	61	; select bank61
  1761     06E4  008F               	movwf	15	;volsfr
  1762     06E5                     l1620:
  1763                           
  1764                           ;main.c: 485:     PPSLOCK = 0xAA;
  1765     06E5  30AA               	movlw	170
  1766     06E6  008F               	movwf	15	;volsfr
  1767     06E7                     l1622:
  1768                           
  1769                           ;main.c: 486:     PPSLOCKbits.PPSLOCKED = 1;
  1770     06E7  140F               	bsf	15,0	;volsfr
  1771     06E8                     l1624:
  1772                           
  1773                           ;main.c: 490:     BAUD1CON = 0x42;
  1774     06E8  3042               	movlw	66
  1775     06E9  0142               	movlb	2	; select bank2
  1776     06EA  009F               	movwf	31	;volatile
  1777     06EB                     l1626:
  1778                           
  1779                           ;main.c: 492:     RC1STA = 0x88;
  1780     06EB  3088               	movlw	136
  1781     06EC  009D               	movwf	29	;volatile
  1782     06ED                     l1628:
  1783                           
  1784                           ;main.c: 494:     TX1STA = 0x22;
  1785     06ED  3022               	movlw	34
  1786     06EE  009E               	movwf	30	;volatile
  1787     06EF                     l1630:
  1788                           
  1789                           ;main.c: 496:     SP1BRGL = 0x67;
  1790     06EF  3067               	movlw	103
  1791     06F0  009B               	movwf	27	;volatile
  1792                           
  1793                           ;main.c: 498:     SP1BRGH = 0x0;
  1794     06F1  019C               	clrf	28	;volatile
  1795     06F2                     l1632:
  1796                           
  1797                           ;main.c: 501:     WDTCON = 0x13;
  1798     06F2  3013               	movlw	19
  1799     06F3  0150               	movlb	16	; select bank16
  1800     06F4  008C               	movwf	12	;volatile
  1801     06F5                     l1634:
  1802                           
  1803                           ;main.c: 504:     PIR0 = 0x0;
  1804     06F5  014E               	movlb	14	; select bank14
  1805     06F6  018C               	clrf	12	;volatile
  1806     06F7                     l1636:
  1807                           
  1808                           ;main.c: 505:     PIR1 = 0x0;
  1809     06F7  018D               	clrf	13	;volatile
  1810     06F8                     l1638:
  1811                           
  1812                           ;main.c: 506:     PIR2 = 0x0;
  1813     06F8  018E               	clrf	14	;volatile
  1814     06F9                     l1640:
  1815                           
  1816                           ;main.c: 509:     GIE = 1;
  1817     06F9  178B               	bsf	11,7	;volatile
  1818     06FA                     l1642:
  1819                           
  1820                           ;main.c: 510:     PEIE = 1;
  1821     06FA  170B               	bsf	11,6	;volatile
  1822     06FB                     l1644:
  1823                           
  1824                           ;main.c: 511:     CCP1IE = 1;
  1825     06FB  1797               	bsf	23,7	;volatile
  1826     06FC                     l1646:
  1827                           
  1828                           ;main.c: 512:     CCP2IE = 1;
  1829     06FC  1798               	bsf	24,7	;volatile
  1830     06FD                     l1648:
  1831                           
  1832                           ;main.c: 513:     TMR1IE = 1;
  1833     06FD  1697               	bsf	23,5	;volatile
  1834     06FE                     l1650:
  1835                           
  1836                           ;main.c: 514:     IOCIE = 1;
  1837     06FE  1616               	bsf	22,4	;volatile
  1838     06FF                     l1652:
  1839                           
  1840                           ;main.c: 516:     ccp2_disable();
  1841     06FF  318F  2711  3186   	fcall	_ccp2_disable
  1842     0702                     l1654:
  1843                           
  1844                           ;main.c: 517:     LATC1 = 0;
  1845     0702  0140               	movlb	0	; select bank0
  1846     0703  109A               	bcf	26,1	;volatile
  1847     0704                     l316:
  1848     0704  0008               	return
  1849     0705                     __end_of_initialize_system:
  1850                           
  1851                           	psect	text5
  1852     0F11                     __ptext5:	
  1853 ;; *************** function _ccp2_disable *****************
  1854 ;; Defined at:
  1855 ;;		line 425 in file "main.c"
  1856 ;; Parameters:    Size  Location     Type
  1857 ;;		None
  1858 ;; Auto vars:     Size  Location     Type
  1859 ;;		None
  1860 ;; Return value:  Size  Location     Type
  1861 ;;                  1    wreg      void 
  1862 ;; Registers used:
  1863 ;;		status,2
  1864 ;; Tracked objects:
  1865 ;;		On entry : 0/0
  1866 ;;		On exit  : 0/0
  1867 ;;		Unchanged: 0/0
  1868 ;; Data sizes:     COMMON   BANK0   BANK1   BANK2   BANK3   BANK4   BANK5   BANK6   BANK7   BANK8   BANK9  BANK10  BANK1
      +1  BANK12
  1869 ;;      Params:         0       0       0       0       0       0       0       0       0       0       0       0       
      +0       0
  1870 ;;      Locals:         0       0       0       0       0       0       0       0       0       0       0       0       
      +0       0
  1871 ;;      Temps:          0       0       0       0       0       0       0       0       0       0       0       0       
      +0       0
  1872 ;;      Totals:         0       0       0       0       0       0       0       0       0       0       0       0       
      +0       0
  1873 ;;Total ram usage:        0 bytes
  1874 ;; Hardware stack levels used: 1
  1875 ;; Hardware stack levels required when called: 3
  1876 ;; This function calls:
  1877 ;;		Nothing
  1878 ;; This function is called by:
  1879 ;;		_initialize_system
  1880 ;; This function uses a non-reentrant model
  1881 ;;
  1882                           
  1883     0F11                     _ccp2_disable:	
  1884                           ;psect for function _ccp2_disable
  1885                           
  1886     0F11                     l1446:	
  1887                           ;incstack = 0
  1888                           ; Regs used in _ccp2_disable: [status,2]
  1889                           
  1890                           
  1891                           ;main.c: 426:     CCP2IE = 0;
  1892     0F11  014E               	movlb	14	; select bank14
  1893     0F12  1398               	bcf	24,7	;volatile
  1894     0F13                     l1448:
  1895                           
  1896                           ;main.c: 427:     CCP2CON = 0;
  1897     0F13  0146               	movlb	6	; select bank6
  1898     0F14  0192               	clrf	18	;volatile
  1899     0F15                     l313:
  1900     0F15  0008               	return
  1901     0F16                     __end_of_ccp2_disable:
  1902                           
  1903                           	psect	text6
  1904     0705                     __ptext6:	
  1905 ;; *************** function _check_sw_state *****************
  1906 ;; Defined at:
  1907 ;;		line 254 in file "main.c"
  1908 ;; Parameters:    Size  Location     Type
  1909 ;;		None
  1910 ;; Auto vars:     Size  Location     Type
  1911 ;;		None
  1912 ;; Return value:  Size  Location     Type
  1913 ;;                  1    wreg      void 
  1914 ;; Registers used:
  1915 ;;		wreg, fsr0l, fsr0h, status,2, status,0
  1916 ;; Tracked objects:
  1917 ;;		On entry : 0/0
  1918 ;;		On exit  : 0/0
  1919 ;;		Unchanged: 0/0
  1920 ;; Data sizes:     COMMON   BANK0   BANK1   BANK2   BANK3   BANK4   BANK5   BANK6   BANK7   BANK8   BANK9  BANK10  BANK1
      +1  BANK12
  1921 ;;      Params:         0       0       0       0       0       0       0       0       0       0       0       0       
      +0       0
  1922 ;;      Locals:         0       0       0       0       0       0       0       0       0       0       0       0       
      +0       0
  1923 ;;      Temps:          0       0       2       0       0       0       0       0       0       0       0       0       
      +0       0
  1924 ;;      Totals:         0       0       2       0       0       0       0       0       0       0       0       0       
      +0       0
  1925 ;;Total ram usage:        2 bytes
  1926 ;; Hardware stack levels used: 1
  1927 ;; Hardware stack levels required when called: 3
  1928 ;; This function calls:
  1929 ;;		Nothing
  1930 ;; This function is called by:
  1931 ;;		_main
  1932 ;; This function uses a non-reentrant model
  1933 ;;
  1934                           
  1935     0705                     _check_sw_state:	
  1936                           ;psect for function _check_sw_state
  1937                           
  1938     0705                     l1656:	
  1939                           ;incstack = 0
  1940                           ; Regs used in _check_sw_state: [wreg-fsr0h+status,2+status,0]
  1941                           
  1942                           
  1943                           ;main.c: 255:     switch (RC5) {
  1944     0705  2F0B               	goto	l1662
  1945     0706                     l255:	
  1946                           ;main.c: 256:     case 0:
  1947                           
  1948                           
  1949                           ;main.c: 257:         pwj_state = PWJ_DISABLE;
  1950     0706  01CE               	clrf	_pwj_state
  1951     0707  0ACE               	incf	_pwj_state,f
  1952                           
  1953                           ;main.c: 258:         break;
  1954     0708  2F1B               	goto	l1668
  1955     0709                     l1658:
  1956                           
  1957                           ;main.c: 260:         pwj_state = PWJ_ENABLE;
  1958     0709  01CE               	clrf	_pwj_state
  1959                           
  1960                           ;main.c: 261:         break;
  1961     070A  2F1B               	goto	l1668
  1962     070B                     l1662:
  1963     070B  3000               	movlw	0
  1964     070C  0140               	movlb	0	; select bank0
  1965     070D  1A8E               	btfsc	14,5	;volatile
  1966     070E  3001               	movlw	1
  1967                           
  1968                           ; Switch size 1, requested type "simple"
  1969                           ; Number of cases is 2, Range of values is 0 to 1
  1970                           ; switch strategies available:
  1971                           ; Name         Instructions Cycles
  1972                           ; simple_byte            7     4 (average)
  1973                           ; direct_byte           10     6 (fixed)
  1974                           ; jumptable            260     6 (fixed)
  1975                           ;	Chosen strategy is simple_byte
  1976     070F  3A00               	xorlw	0	; case 0
  1977     0710  1903               	skipnz
  1978     0711  2F06               	goto	l255
  1979     0712  3A01               	xorlw	1	; case 1
  1980     0713  1903               	skipnz
  1981     0714  2F09               	goto	l1658
  1982     0715  2F1B               	goto	l1668
  1983     0716                     l259:	
  1984                           ;main.c: 264:     case 0:
  1985                           
  1986                           
  1987                           ;main.c: 265:         revlimit_state = REVLIMIT_DISABLE;
  1988     0716  01CF               	clrf	_revlimit_state
  1989     0717  0ACF               	incf	_revlimit_state,f
  1990                           
  1991                           ;main.c: 266:         break;
  1992     0718  2F25               	goto	l1670
  1993     0719                     l1664:
  1994                           
  1995                           ;main.c: 268:         revlimit_state = REVLIMIT_ENABLE;
  1996     0719  01CF               	clrf	_revlimit_state
  1997                           
  1998                           ;main.c: 269:         break;
  1999     071A  2F25               	goto	l1670
  2000     071B                     l1668:
  2001     071B  3000               	movlw	0
  2002     071C  1A0C               	btfsc	12,4	;volatile
  2003     071D  3001               	movlw	1
  2004                           
  2005                           ; Switch size 1, requested type "simple"
  2006                           ; Number of cases is 2, Range of values is 0 to 1
  2007                           ; switch strategies available:
  2008                           ; Name         Instructions Cycles
  2009                           ; simple_byte            7     4 (average)
  2010                           ; direct_byte           10     6 (fixed)
  2011                           ; jumptable            260     6 (fixed)
  2012                           ;	Chosen strategy is simple_byte
  2013     071E  3A00               	xorlw	0	; case 0
  2014     071F  1903               	skipnz
  2015     0720  2F16               	goto	l259
  2016     0721  3A01               	xorlw	1	; case 1
  2017     0722  1903               	skipnz
  2018     0723  2F19               	goto	l1664
  2019     0724  2F25               	goto	l1670
  2020     0725                     l1670:
  2021                           
  2022                           ;main.c: 272:     sw1_pos = (PORTCbits.RC4 << 1) + PORTCbits.RC3;
  2023     0725  0E0E               	swapf	14,w	;volatile
  2024     0726  3901               	andlw	1
  2025     0727  0141               	movlb	1	; select bank1
  2026     0728  00A0               	movwf	??_check_sw_state^(0+128)
  2027     0729  3001               	movlw	1
  2028     072A                     u1115:
  2029     072A  35A0               	lslf	??_check_sw_state^(0+128),f
  2030     072B  0B89               	decfsz	9,f
  2031     072C  2F2A               	goto	u1115
  2032     072D  0140               	movlb	0	; select bank0
  2033     072E  0C0E               	rrf	14,w	;volatile
  2034     072F  0141               	movlb	1	; select bank1
  2035     0730  00A1               	movwf	(??_check_sw_state+1)^(0+128)
  2036     0731  0CA1               	rrf	(??_check_sw_state+1)^(0+128),f
  2037     0732  0C21               	rrf	(??_check_sw_state+1)^(0+128),w
  2038     0733  3901               	andlw	1
  2039     0734  0720               	addwf	??_check_sw_state^(0+128),w
  2040     0735  00D3               	movwf	_sw1_pos^(0+128)
  2041                           
  2042                           ;main.c: 273:     sw2_pos = (PORTCbits.RC6 << 1) + PORTCbits.RC7;
  2043     0736  0140               	movlb	0	; select bank0
  2044     0737  0E0E               	swapf	14,w	;volatile
  2045     0738  0C89               	rrf	9,f
  2046     0739  0C89               	rrf	9,f
  2047     073A  3901               	andlw	1
  2048     073B  0141               	movlb	1	; select bank1
  2049     073C  00A0               	movwf	??_check_sw_state^(0+128)
  2050     073D  3001               	movlw	1
  2051     073E                     u1125:
  2052     073E  35A0               	lslf	??_check_sw_state^(0+128),f
  2053     073F  0B89               	decfsz	9,f
  2054     0740  2F3E               	goto	u1125
  2055     0741  0140               	movlb	0	; select bank0
  2056     0742  0D0E               	rlf	14,w	;volatile
  2057     0743  0D0E               	rlf	14,w	;volatile
  2058     0744  3901               	andlw	1
  2059     0745  0141               	movlb	1	; select bank1
  2060     0746  0720               	addwf	??_check_sw_state^(0+128),w
  2061     0747  00D2               	movwf	_sw2_pos^(0+128)
  2062     0748                     l1672:
  2063                           
  2064                           ;main.c: 275:     sw3_pos = 3;
  2065     0748  3003               	movlw	3
  2066     0749  00D1               	movwf	_sw3_pos^(0+128)
  2067     074A                     l1674:
  2068                           
  2069                           ;main.c: 276:     sw4_pos = (PORTBbits.RB5 << 1) + PORTBbits.RB4;
  2070     074A  0140               	movlb	0	; select bank0
  2071     074B  0E0D               	swapf	13,w	;volatile
  2072     074C  0C89               	rrf	9,f
  2073     074D  3901               	andlw	1
  2074     074E  0141               	movlb	1	; select bank1
  2075     074F  00A0               	movwf	??_check_sw_state^(0+128)
  2076     0750  3001               	movlw	1
  2077     0751                     u1135:
  2078     0751  35A0               	lslf	??_check_sw_state^(0+128),f
  2079     0752  0B89               	decfsz	9,f
  2080     0753  2F51               	goto	u1135
  2081     0754  0140               	movlb	0	; select bank0
  2082     0755  0E0D               	swapf	13,w	;volatile
  2083     0756  3901               	andlw	1
  2084     0757  0141               	movlb	1	; select bank1
  2085     0758  0720               	addwf	??_check_sw_state^(0+128),w
  2086     0759  00D0               	movwf	_sw4_pos^(0+128)
  2087     075A                     l262:
  2088     075A  0008               	return
  2089     075B                     __end_of_check_sw_state:
  2090                           
  2091                           	psect	text7
  2092     0F2E                     __ptext7:	
  2093 ;; *************** function _ccp1_enable *****************
  2094 ;; Defined at:
  2095 ;;		line 394 in file "main.c"
  2096 ;; Parameters:    Size  Location     Type
  2097 ;;		None
  2098 ;; Auto vars:     Size  Location     Type
  2099 ;;		None
  2100 ;; Return value:  Size  Location     Type
  2101 ;;                  1    wreg      void 
  2102 ;; Registers used:
  2103 ;;		wreg
  2104 ;; Tracked objects:
  2105 ;;		On entry : 0/0
  2106 ;;		On exit  : 0/0
  2107 ;;		Unchanged: 0/0
  2108 ;; Data sizes:     COMMON   BANK0   BANK1   BANK2   BANK3   BANK4   BANK5   BANK6   BANK7   BANK8   BANK9  BANK10  BANK1
      +1  BANK12
  2109 ;;      Params:         0       0       0       0       0       0       0       0       0       0       0       0       
      +0       0
  2110 ;;      Locals:         0       0       0       0       0       0       0       0       0       0       0       0       
      +0       0
  2111 ;;      Temps:          0       0       0       0       0       0       0       0       0       0       0       0       
      +0       0
  2112 ;;      Totals:         0       0       0       0       0       0       0       0       0       0       0       0       
      +0       0
  2113 ;;Total ram usage:        0 bytes
  2114 ;; Hardware stack levels used: 1
  2115 ;; Hardware stack levels required when called: 3
  2116 ;; This function calls:
  2117 ;;		Nothing
  2118 ;; This function is called by:
  2119 ;;		_main
  2120 ;; This function uses a non-reentrant model
  2121 ;;
  2122                           
  2123     0F2E                     _ccp1_enable:	
  2124                           ;psect for function _ccp1_enable
  2125                           
  2126     0F2E                     l1754:	
  2127                           ;incstack = 0
  2128                           ; Regs used in _ccp1_enable: [wreg]
  2129                           
  2130                           
  2131                           ;main.c: 395:     CCP1IE = 0;
  2132     0F2E  014E               	movlb	14	; select bank14
  2133     0F2F  1397               	bcf	23,7	;volatile
  2134                           
  2135                           ;main.c: 396:     CCP1IF = 0;
  2136     0F30  138D               	bcf	13,7	;volatile
  2137     0F31                     l1756:
  2138                           
  2139                           ;main.c: 397:     CCP1CON = 0x84;
  2140     0F31  3084               	movlw	132
  2141     0F32  0146               	movlb	6	; select bank6
  2142     0F33  008E               	movwf	14	;volatile
  2143     0F34                     l1758:
  2144                           
  2145                           ;main.c: 398:     CCP1IE = 1;
  2146     0F34  014E               	movlb	14	; select bank14
  2147     0F35  1797               	bsf	23,7	;volatile
  2148     0F36                     l304:
  2149     0F36  0008               	return
  2150     0F37                     __end_of_ccp1_enable:
  2151                           
  2152                           	psect	text8
  2153     0358                     __ptext8:	
  2154 ;; *************** function _calc_map *****************
  2155 ;; Defined at:
  2156 ;;		line 208 in file "main.c"
  2157 ;; Parameters:    Size  Location     Type
  2158 ;;		None
  2159 ;; Auto vars:     Size  Location     Type
  2160 ;;  temp1           3   30[BANK1 ] unsigned um
  2161 ;;  temp            3   27[BANK1 ] unsigned um
  2162 ;;  p4y             2   41[BANK1 ] unsigned short 
  2163 ;;  p3y             2   39[BANK1 ] unsigned short 
  2164 ;;  p2y             2   37[BANK1 ] unsigned short 
  2165 ;;  p1y             2   35[BANK1 ] unsigned short 
  2166 ;;  a               1   47[BANK1 ] unsigned char 
  2167 ;;  p4x             1   46[BANK1 ] unsigned char 
  2168 ;;  p3x             1   45[BANK1 ] unsigned char 
  2169 ;;  p2x             1   44[BANK1 ] unsigned char 
  2170 ;;  p1x             1   43[BANK1 ] unsigned char 
  2171 ;;  coeff_p3_p4     1   34[BANK1 ] unsigned char 
  2172 ;;  coeff_p1_p2     1   33[BANK1 ] unsigned char 
  2173 ;; Return value:  Size  Location     Type
  2174 ;;                  1    wreg      void 
  2175 ;; Registers used:
  2176 ;;		wreg, fsr0l, fsr0h, fsr1l, fsr1h, status,2, status,0, pclath, cstack
  2177 ;; Tracked objects:
  2178 ;;		On entry : 0/0
  2179 ;;		On exit  : 0/0
  2180 ;;		Unchanged: 0/0
  2181 ;; Data sizes:     COMMON   BANK0   BANK1   BANK2   BANK3   BANK4   BANK5   BANK6   BANK7   BANK8   BANK9  BANK10  BANK1
      +1  BANK12
  2182 ;;      Params:         0       0       0       0       0       0       0       0       0       0       0       0       
      +0       0
  2183 ;;      Locals:         0       0      21       0       0       0       0       0       0       0       0       0       
      +0       0
  2184 ;;      Temps:          0       0      12       0       0       0       0       0       0       0       0       0       
      +0       0
  2185 ;;      Totals:         0       0      33       0       0       0       0       0       0       0       0       0       
      +0       0
  2186 ;;Total ram usage:       33 bytes
  2187 ;; Hardware stack levels used: 1
  2188 ;; Hardware stack levels required when called: 4
  2189 ;; This function calls:
  2190 ;;		___lwdiv
  2191 ;;		___tmul
  2192 ;;		___wmul
  2193 ;; This function is called by:
  2194 ;;		_main
  2195 ;; This function uses a non-reentrant model
  2196 ;;
  2197                           
  2198     0358                     _calc_map:	
  2199                           ;psect for function _calc_map
  2200                           
  2201     0358                     l1676:	
  2202                           ;incstack = 0
  2203                           ; Regs used in _calc_map: [wreg-fsr1h+status,2+status,0+pclath+cstack]
  2204                           
  2205                           
  2206                           ;main.c: 209:     uint8_t p1x, p2x, p3x, p4x;;main.c: 210:     uint16_t p1y, p2y, p3y, p
      +                          4y;;main.c: 211:     uint8_t coeff_p1_p2, coeff_p3_p4;;main.c: 212:     uint8_t a;;main.
      +                          c: 213:     uint24_t temp;;main.c: 214:     uint24_t temp1;;main.c: 216:     p1x = adv_s
      +                          tart_rpm_table[sw1_pos];
  2207     0358  0141               	movlb	1	; select bank1
  2208     0359  0853               	movf	_sw1_pos^(0+128),w
  2209     035A  3E1D               	addlw	low (_adv_start_rpm_table| (0+32768))
  2210     035B  0084               	movwf	4
  2211     035C  3090               	movlw	high (_adv_start_rpm_table| (0+32768))
  2212     035D  1803               	skipnc
  2213     035E  3E01               	addlw	1
  2214     035F  0085               	movwf	5
  2215     0360  0800               	movf	0,w	;code access
  2216     0361  00CB               	movwf	calc_map@p1x^(0+128)
  2217     0362                     l1678:
  2218                           
  2219                           ;main.c: 217:     p2x = adv_start_rpm_table[sw1_pos] + max_adv_grad_table[sw3_pos];
  2220     0362  0851               	movf	_sw3_pos^(0+128),w
  2221     0363  3E19               	addlw	low (_max_adv_grad_table| (0+32768))
  2222     0364  0084               	movwf	4
  2223     0365  3090               	movlw	high (_max_adv_grad_table| (0+32768))
  2224     0366  1803               	skipnc
  2225     0367  3E01               	addlw	1
  2226     0368  0085               	movwf	5
  2227     0369  0800               	movf	0,w	;code access
  2228     036A  00AF               	movwf	??_calc_map^(0+128)
  2229     036B  0853               	movf	_sw1_pos^(0+128),w
  2230     036C  3E1D               	addlw	low (_adv_start_rpm_table| (0+32768))
  2231     036D  0084               	movwf	4
  2232     036E  3090               	movlw	high (_adv_start_rpm_table| (0+32768))
  2233     036F  1803               	skipnc
  2234     0370  3E01               	addlw	1
  2235     0371  0085               	movwf	5
  2236     0372  0800               	movf	0,w	;code access
  2237     0373  072F               	addwf	??_calc_map^(0+128),w
  2238     0374  00CC               	movwf	calc_map@p2x^(0+128)
  2239     0375                     l1680:
  2240                           
  2241                           ;main.c: 218:     p3x = (55);
  2242     0375  3037               	movlw	55
  2243     0376  00CD               	movwf	calc_map@p3x^(0+128)
  2244     0377                     l1682:
  2245                           
  2246                           ;main.c: 219:     p4x = (80);
  2247     0377  3050               	movlw	80
  2248     0378  00CE               	movwf	calc_map@p4x^(0+128)
  2249     0379                     l1684:
  2250                           
  2251                           ;main.c: 220:     p1y = (500);
  2252     0379  30F4               	movlw	244
  2253     037A  00C3               	movwf	calc_map@p1y^(0+128)
  2254     037B  3001               	movlw	1
  2255     037C  00C4               	movwf	(calc_map@p1y^(0+128)+1)
  2256     037D                     l1686:
  2257                           
  2258                           ;main.c: 221:     p2y = max_adv_table[sw2_pos];
  2259     037D  0852               	movf	_sw2_pos^(0+128),w
  2260     037E  00AF               	movwf	??_calc_map^(0+128)
  2261     037F  01B0               	clrf	(??_calc_map^(0+128)+1)
  2262     0380  35AF               	lslf	??_calc_map^(0+128),f
  2263     0381  0DB0               	rlf	(??_calc_map^(0+128)+1),f
  2264     0382  3011               	movlw	low _max_adv_table
  2265     0383  072F               	addwf	??_calc_map^(0+128),w
  2266     0384  0084               	movwf	4
  2267     0385  3010               	movlw	high _max_adv_table
  2268     0386  3D30               	addwfc	(??_calc_map+1)^(0+128),w
  2269     0387  3880               	iorlw	128
  2270     0388  0085               	movwf	5
  2271     0389  3F00               	moviw [0]fsr0
  2272     038A  00C5               	movwf	calc_map@p2y^(0+128)
  2273     038B  3F01               	moviw [1]fsr0
  2274     038C  00C6               	movwf	(calc_map@p2y+1)^(0+128)
  2275     038D                     l1688:
  2276                           
  2277                           ;main.c: 222:     p3y = p2y;
  2278     038D  0846               	movf	(calc_map@p2y+1)^(0+128),w
  2279     038E  00C8               	movwf	(calc_map@p3y+1)^(0+128)
  2280     038F  0845               	movf	calc_map@p2y^(0+128),w
  2281     0390  00C7               	movwf	calc_map@p3y^(0+128)
  2282     0391                     l1690:
  2283                           
  2284                           ;main.c: 223:     p4y = min_ret_table[sw4_pos];
  2285     0391  0850               	movf	_sw4_pos^(0+128),w
  2286     0392  00AF               	movwf	??_calc_map^(0+128)
  2287     0393  01B0               	clrf	(??_calc_map^(0+128)+1)
  2288     0394  35AF               	lslf	??_calc_map^(0+128),f
  2289     0395  0DB0               	rlf	(??_calc_map^(0+128)+1),f
  2290     0396  3009               	movlw	low _min_ret_table
  2291     0397  072F               	addwf	??_calc_map^(0+128),w
  2292     0398  0084               	movwf	4
  2293     0399  3010               	movlw	high _min_ret_table
  2294     039A  3D30               	addwfc	(??_calc_map+1)^(0+128),w
  2295     039B  3880               	iorlw	128
  2296     039C  0085               	movwf	5
  2297     039D  3F00               	moviw [0]fsr0
  2298     039E  00C9               	movwf	calc_map@p4y^(0+128)
  2299     039F  3F01               	moviw [1]fsr0
  2300     03A0  00CA               	movwf	(calc_map@p4y+1)^(0+128)
  2301     03A1                     l1692:
  2302                           
  2303                           ;main.c: 224:     coeff_p1_p2 = (uint8_t) ((p2y - p1y) / (p2x - p1x));
  2304     03A1  084B               	movf	calc_map@p1x^(0+128),w
  2305     03A2  024C               	subwf	calc_map@p2x^(0+128),w
  2306     03A3  00A0               	movwf	___lwdiv@divisor^(0+128)
  2307     03A4  01A1               	clrf	(___lwdiv@divisor^(0+128)+1)
  2308     03A5  1C03               	skipc
  2309     03A6  03A1               	decf	(___lwdiv@divisor+1)^(0+128),f
  2310     03A7  0845               	movf	calc_map@p2y^(0+128),w
  2311     03A8  3E0C               	addlw	12
  2312     03A9  00A2               	movwf	___lwdiv@dividend^(0+128)
  2313     03AA  30FE               	movlw	254
  2314     03AB  3D46               	addwfc	(calc_map@p2y+1)^(0+128),w
  2315     03AC  00A3               	movwf	(___lwdiv@dividend+1)^(0+128)
  2316     03AD  3187  275B  3183   	fcall	___lwdiv
  2317     03B0  0141               	movlb	1	; select bank1
  2318     03B1  0820               	movf	?___lwdiv^(0+128),w
  2319     03B2  00C1               	movwf	calc_map@coeff_p1_p2^(0+128)
  2320     03B3                     l1694:
  2321                           
  2322                           ;main.c: 225:     coeff_p3_p4 = (uint8_t) ((p3y - p4y) / (p4x - p3x));
  2323     03B3  3019               	movlw	25
  2324     03B4  00A0               	movwf	___lwdiv@divisor^(0+128)
  2325     03B5  3000               	movlw	0
  2326     03B6  00A1               	movwf	(___lwdiv@divisor^(0+128)+1)
  2327     03B7  0849               	movf	calc_map@p4y^(0+128),w
  2328     03B8  0247               	subwf	calc_map@p3y^(0+128),w
  2329     03B9  00A2               	movwf	___lwdiv@dividend^(0+128)
  2330     03BA  084A               	movf	(calc_map@p4y+1)^(0+128),w
  2331     03BB  3B48               	subwfb	(calc_map@p3y+1)^(0+128),w
  2332     03BC  00A3               	movwf	(___lwdiv@dividend+1)^(0+128)
  2333     03BD  3187  275B  3183   	fcall	___lwdiv
  2334     03C0  0141               	movlb	1	; select bank1
  2335     03C1  0820               	movf	?___lwdiv^(0+128),w
  2336     03C2  00C2               	movwf	calc_map@coeff_p3_p4^(0+128)
  2337     03C3                     l1696:
  2338                           
  2339                           ;main.c: 228:     for (a = 15; a <= p1x; a++) {
  2340     03C3  300F               	movlw	15
  2341     03C4  00CF               	movwf	calc_map@a^(0+128)
  2342     03C5  2BDD               	goto	l1702
  2343     03C6                     l1698:
  2344                           
  2345                           ;main.c: 229:         IG_table[a] = p1y;
  2346     03C6  084F               	movf	calc_map@a^(0+128),w
  2347     03C7  00AF               	movwf	??_calc_map^(0+128)
  2348     03C8  01B0               	clrf	(??_calc_map^(0+128)+1)
  2349     03C9  35AF               	lslf	??_calc_map^(0+128),f
  2350     03CA  0DB0               	rlf	(??_calc_map^(0+128)+1),f
  2351     03CB  30EA               	movlw	234
  2352     03CC  00B1               	movwf	(??_calc_map+2)^(0+128)
  2353     03CD  3022               	movlw	34
  2354     03CE  00B2               	movwf	((??_calc_map+2)^(0+128)+1)
  2355     03CF  082F               	movf	??_calc_map^(0+128),w
  2356     03D0  0731               	addwf	(??_calc_map+2)^(0+128),w
  2357     03D1  0086               	movwf	6
  2358     03D2  0830               	movf	(??_calc_map+1)^(0+128),w
  2359     03D3  3D32               	addwfc	(??_calc_map+3)^(0+128),w
  2360     03D4  0087               	movwf	7
  2361     03D5  0843               	movf	calc_map@p1y^(0+128),w
  2362     03D6  3FC0               	movwi [0]fsr1
  2363     03D7  0844               	movf	(calc_map@p1y+1)^(0+128),w
  2364     03D8  3FC1               	movwi [1]fsr1
  2365     03D9                     l1700:
  2366                           
  2367                           ;main.c: 230:     }
  2368     03D9  3001               	movlw	1
  2369     03DA  00AF               	movwf	??_calc_map^(0+128)
  2370     03DB  082F               	movf	??_calc_map^(0+128),w
  2371     03DC  07CF               	addwf	calc_map@a^(0+128),f
  2372     03DD                     l1702:
  2373     03DD  084F               	movf	calc_map@a^(0+128),w
  2374     03DE  024B               	subwf	calc_map@p1x^(0+128),w
  2375     03DF  1803               	skipnc
  2376     03E0  2BE2               	goto	u1141
  2377     03E1  2BE3               	goto	u1140
  2378     03E2                     u1141:
  2379     03E2  2BC6               	goto	l1698
  2380     03E3                     u1140:
  2381     03E3                     l1704:
  2382                           
  2383                           ;main.c: 231:     for (a = p1x + 1; a <= p2x; a++) {
  2384     03E3  084B               	movf	calc_map@p1x^(0+128),w
  2385     03E4  3E01               	addlw	1
  2386     03E5  00CF               	movwf	calc_map@a^(0+128)
  2387     03E6  2C18               	goto	l1710
  2388     03E7                     l1706:
  2389                           
  2390                           ;main.c: 232:         IG_table[a] = coeff_p1_p2 + IG_table[a - 1];
  2391     03E7  084F               	movf	calc_map@a^(0+128),w
  2392     03E8  00AF               	movwf	??_calc_map^(0+128)
  2393     03E9  01B0               	clrf	(??_calc_map^(0+128)+1)
  2394     03EA  35AF               	lslf	??_calc_map^(0+128),f
  2395     03EB  0DB0               	rlf	(??_calc_map^(0+128)+1),f
  2396     03EC  30E8               	movlw	232
  2397     03ED  00B1               	movwf	(??_calc_map+2)^(0+128)
  2398     03EE  3022               	movlw	34
  2399     03EF  00B2               	movwf	((??_calc_map+2)^(0+128)+1)
  2400     03F0  082F               	movf	??_calc_map^(0+128),w
  2401     03F1  0731               	addwf	(??_calc_map+2)^(0+128),w
  2402     03F2  0086               	movwf	6
  2403     03F3  0830               	movf	(??_calc_map+1)^(0+128),w
  2404     03F4  3D32               	addwfc	(??_calc_map+3)^(0+128),w
  2405     03F5  0087               	movwf	7
  2406     03F6  3F40               	moviw [0]fsr1
  2407     03F7  00B3               	movwf	(??_calc_map+4)^(0+128)
  2408     03F8  3F41               	moviw [1]fsr1
  2409     03F9  00B4               	movwf	((??_calc_map+4)^(0+128)+1)
  2410     03FA  0841               	movf	calc_map@coeff_p1_p2^(0+128),w
  2411     03FB  0733               	addwf	(??_calc_map+4)^(0+128),w
  2412     03FC  00B5               	movwf	(??_calc_map+6)^(0+128)
  2413     03FD  0834               	movf	(??_calc_map+5)^(0+128),w
  2414     03FE  1803               	skipnc
  2415     03FF  0A34               	incf	(??_calc_map+5)^(0+128),w
  2416     0400  00B6               	movwf	((??_calc_map+6)^(0+128)+1)
  2417     0401  084F               	movf	calc_map@a^(0+128),w
  2418     0402  00B7               	movwf	(??_calc_map+8)^(0+128)
  2419     0403  01B8               	clrf	((??_calc_map+8)^(0+128)+1)
  2420     0404  35B7               	lslf	(??_calc_map+8)^(0+128),f
  2421     0405  0DB8               	rlf	((??_calc_map+8)^(0+128)+1),f
  2422     0406  30EA               	movlw	234
  2423     0407  00B9               	movwf	(??_calc_map+10)^(0+128)
  2424     0408  3022               	movlw	34
  2425     0409  00BA               	movwf	((??_calc_map+10)^(0+128)+1)
  2426     040A  0837               	movf	(??_calc_map+8)^(0+128),w
  2427     040B  0739               	addwf	(??_calc_map+10)^(0+128),w
  2428     040C  0086               	movwf	6
  2429     040D  0838               	movf	(??_calc_map+9)^(0+128),w
  2430     040E  3D3A               	addwfc	(??_calc_map+11)^(0+128),w
  2431     040F  0087               	movwf	7
  2432     0410  0835               	movf	(??_calc_map+6)^(0+128),w
  2433     0411  3FC0               	movwi [0]fsr1
  2434     0412  0836               	movf	((??_calc_map+6)^(0+128)+1),w
  2435     0413  3FC1               	movwi [1]fsr1
  2436     0414                     l1708:
  2437                           
  2438                           ;main.c: 233:     }
  2439     0414  3001               	movlw	1
  2440     0415  00AF               	movwf	??_calc_map^(0+128)
  2441     0416  082F               	movf	??_calc_map^(0+128),w
  2442     0417  07CF               	addwf	calc_map@a^(0+128),f
  2443     0418                     l1710:
  2444     0418  084F               	movf	calc_map@a^(0+128),w
  2445     0419  024C               	subwf	calc_map@p2x^(0+128),w
  2446     041A  1803               	skipnc
  2447     041B  2C1D               	goto	u1151
  2448     041C  2C1E               	goto	u1150
  2449     041D                     u1151:
  2450     041D  2BE7               	goto	l1706
  2451     041E                     u1150:
  2452     041E                     l1712:
  2453                           
  2454                           ;main.c: 234:     for (a = p2x + 1; a <= p3x; a++) {
  2455     041E  084C               	movf	calc_map@p2x^(0+128),w
  2456     041F  3E01               	addlw	1
  2457     0420  00CF               	movwf	calc_map@a^(0+128)
  2458     0421  2C39               	goto	l1718
  2459     0422                     l1714:
  2460                           
  2461                           ;main.c: 235:         IG_table[a] = p3y;
  2462     0422  084F               	movf	calc_map@a^(0+128),w
  2463     0423  00AF               	movwf	??_calc_map^(0+128)
  2464     0424  01B0               	clrf	(??_calc_map^(0+128)+1)
  2465     0425  35AF               	lslf	??_calc_map^(0+128),f
  2466     0426  0DB0               	rlf	(??_calc_map^(0+128)+1),f
  2467     0427  30EA               	movlw	234
  2468     0428  00B1               	movwf	(??_calc_map+2)^(0+128)
  2469     0429  3022               	movlw	34
  2470     042A  00B2               	movwf	((??_calc_map+2)^(0+128)+1)
  2471     042B  082F               	movf	??_calc_map^(0+128),w
  2472     042C  0731               	addwf	(??_calc_map+2)^(0+128),w
  2473     042D  0086               	movwf	6
  2474     042E  0830               	movf	(??_calc_map+1)^(0+128),w
  2475     042F  3D32               	addwfc	(??_calc_map+3)^(0+128),w
  2476     0430  0087               	movwf	7
  2477     0431  0847               	movf	calc_map@p3y^(0+128),w
  2478     0432  3FC0               	movwi [0]fsr1
  2479     0433  0848               	movf	(calc_map@p3y+1)^(0+128),w
  2480     0434  3FC1               	movwi [1]fsr1
  2481     0435                     l1716:
  2482                           
  2483                           ;main.c: 236:     }
  2484     0435  3001               	movlw	1
  2485     0436  00AF               	movwf	??_calc_map^(0+128)
  2486     0437  082F               	movf	??_calc_map^(0+128),w
  2487     0438  07CF               	addwf	calc_map@a^(0+128),f
  2488     0439                     l1718:
  2489     0439  084F               	movf	calc_map@a^(0+128),w
  2490     043A  024D               	subwf	calc_map@p3x^(0+128),w
  2491     043B  1803               	skipnc
  2492     043C  2C3E               	goto	u1161
  2493     043D  2C3F               	goto	u1160
  2494     043E                     u1161:
  2495     043E  2C22               	goto	l1714
  2496     043F                     u1160:
  2497     043F                     l1720:
  2498                           
  2499                           ;main.c: 237:     for (a = p3x + 1; a <= p4x; a++) {
  2500     043F  084D               	movf	calc_map@p3x^(0+128),w
  2501     0440  3E01               	addlw	1
  2502     0441  00CF               	movwf	calc_map@a^(0+128)
  2503     0442  2C74               	goto	l1726
  2504     0443                     l1722:
  2505                           
  2506                           ;main.c: 238:         IG_table[a] = IG_table[a - 1] - coeff_p3_p4;
  2507     0443  084F               	movf	calc_map@a^(0+128),w
  2508     0444  00AF               	movwf	??_calc_map^(0+128)
  2509     0445  01B0               	clrf	(??_calc_map^(0+128)+1)
  2510     0446  35AF               	lslf	??_calc_map^(0+128),f
  2511     0447  0DB0               	rlf	(??_calc_map^(0+128)+1),f
  2512     0448  30E8               	movlw	232
  2513     0449  00B1               	movwf	(??_calc_map+2)^(0+128)
  2514     044A  3022               	movlw	34
  2515     044B  00B2               	movwf	((??_calc_map+2)^(0+128)+1)
  2516     044C  082F               	movf	??_calc_map^(0+128),w
  2517     044D  0731               	addwf	(??_calc_map+2)^(0+128),w
  2518     044E  0086               	movwf	6
  2519     044F  0830               	movf	(??_calc_map+1)^(0+128),w
  2520     0450  3D32               	addwfc	(??_calc_map+3)^(0+128),w
  2521     0451  0087               	movwf	7
  2522     0452  3F40               	moviw [0]fsr1
  2523     0453  00B3               	movwf	(??_calc_map+4)^(0+128)
  2524     0454  3F41               	moviw [1]fsr1
  2525     0455  00B4               	movwf	((??_calc_map+4)^(0+128)+1)
  2526     0456  0834               	movf	(??_calc_map+5)^(0+128),w
  2527     0457  00B6               	movwf	((??_calc_map+6)^(0+128)+1)
  2528     0458  0842               	movf	calc_map@coeff_p3_p4^(0+128),w
  2529     0459  0233               	subwf	(??_calc_map+4)^(0+128),w
  2530     045A  00B5               	movwf	(??_calc_map+6)^(0+128)
  2531     045B  1C03               	skipc
  2532     045C  03B6               	decf	((??_calc_map+6)^(0+128)+1),f
  2533     045D  084F               	movf	calc_map@a^(0+128),w
  2534     045E  00B7               	movwf	(??_calc_map+8)^(0+128)
  2535     045F  01B8               	clrf	((??_calc_map+8)^(0+128)+1)
  2536     0460  35B7               	lslf	(??_calc_map+8)^(0+128),f
  2537     0461  0DB8               	rlf	((??_calc_map+8)^(0+128)+1),f
  2538     0462  30EA               	movlw	234
  2539     0463  00B9               	movwf	(??_calc_map+10)^(0+128)
  2540     0464  3022               	movlw	34
  2541     0465  00BA               	movwf	((??_calc_map+10)^(0+128)+1)
  2542     0466  0837               	movf	(??_calc_map+8)^(0+128),w
  2543     0467  0739               	addwf	(??_calc_map+10)^(0+128),w
  2544     0468  0086               	movwf	6
  2545     0469  0838               	movf	(??_calc_map+9)^(0+128),w
  2546     046A  3D3A               	addwfc	(??_calc_map+11)^(0+128),w
  2547     046B  0087               	movwf	7
  2548     046C  0835               	movf	(??_calc_map+6)^(0+128),w
  2549     046D  3FC0               	movwi [0]fsr1
  2550     046E  0836               	movf	((??_calc_map+6)^(0+128)+1),w
  2551     046F  3FC1               	movwi [1]fsr1
  2552     0470                     l1724:
  2553                           
  2554                           ;main.c: 239:     }
  2555     0470  3001               	movlw	1
  2556     0471  00AF               	movwf	??_calc_map^(0+128)
  2557     0472  082F               	movf	??_calc_map^(0+128),w
  2558     0473  07CF               	addwf	calc_map@a^(0+128),f
  2559     0474                     l1726:
  2560     0474  084F               	movf	calc_map@a^(0+128),w
  2561     0475  024E               	subwf	calc_map@p4x^(0+128),w
  2562     0476  1803               	skipnc
  2563     0477  2C79               	goto	u1171
  2564     0478  2C7A               	goto	u1170
  2565     0479                     u1171:
  2566     0479  2C43               	goto	l1722
  2567     047A                     u1170:
  2568     047A                     l1728:
  2569                           
  2570                           ;main.c: 240:     for (a = p4x + 1; a <= 130; a++) {
  2571     047A  084E               	movf	calc_map@p4x^(0+128),w
  2572     047B  3E01               	addlw	1
  2573     047C  00CF               	movwf	calc_map@a^(0+128)
  2574     047D                     l1730:
  2575     047D  3083               	movlw	131
  2576     047E  024F               	subwf	calc_map@a^(0+128),w
  2577     047F  1C03               	skipc
  2578     0480  2C82               	goto	u1181
  2579     0481  2C83               	goto	u1180
  2580     0482                     u1181:
  2581     0482  2C84               	goto	l1734
  2582     0483                     u1180:
  2583     0483  2C9C               	goto	l1740
  2584     0484                     l1734:
  2585                           
  2586                           ;main.c: 241:         IG_table[a] = p4y;
  2587     0484  084F               	movf	calc_map@a^(0+128),w
  2588     0485  00AF               	movwf	??_calc_map^(0+128)
  2589     0486  01B0               	clrf	(??_calc_map^(0+128)+1)
  2590     0487  35AF               	lslf	??_calc_map^(0+128),f
  2591     0488  0DB0               	rlf	(??_calc_map^(0+128)+1),f
  2592     0489  30EA               	movlw	234
  2593     048A  00B1               	movwf	(??_calc_map+2)^(0+128)
  2594     048B  3022               	movlw	34
  2595     048C  00B2               	movwf	((??_calc_map+2)^(0+128)+1)
  2596     048D  082F               	movf	??_calc_map^(0+128),w
  2597     048E  0731               	addwf	(??_calc_map+2)^(0+128),w
  2598     048F  0086               	movwf	6
  2599     0490  0830               	movf	(??_calc_map+1)^(0+128),w
  2600     0491  3D32               	addwfc	(??_calc_map+3)^(0+128),w
  2601     0492  0087               	movwf	7
  2602     0493  0849               	movf	calc_map@p4y^(0+128),w
  2603     0494  3FC0               	movwi [0]fsr1
  2604     0495  084A               	movf	(calc_map@p4y+1)^(0+128),w
  2605     0496  3FC1               	movwi [1]fsr1
  2606     0497                     l1736:
  2607                           
  2608                           ;main.c: 242:     }
  2609     0497  3001               	movlw	1
  2610     0498  00AF               	movwf	??_calc_map^(0+128)
  2611     0499  082F               	movf	??_calc_map^(0+128),w
  2612     049A  07CF               	addwf	calc_map@a^(0+128),f
  2613     049B  2C7D               	goto	l1730
  2614     049C                     l1740:
  2615                           
  2616                           ;main.c: 243:     for (a = 15; a <= 130; a++) {
  2617     049C  300F               	movlw	15
  2618     049D  00CF               	movwf	calc_map@a^(0+128)
  2619     049E                     l1744:
  2620                           
  2621                           ;main.c: 244:         temp1 = (((3500) - IG_table[a]) >> 1);
  2622     049E  084F               	movf	calc_map@a^(0+128),w
  2623     049F  00AF               	movwf	??_calc_map^(0+128)
  2624     04A0  01B0               	clrf	(??_calc_map^(0+128)+1)
  2625     04A1  35AF               	lslf	??_calc_map^(0+128),f
  2626     04A2  0DB0               	rlf	(??_calc_map^(0+128)+1),f
  2627     04A3  30EA               	movlw	234
  2628     04A4  00B1               	movwf	(??_calc_map+2)^(0+128)
  2629     04A5  3022               	movlw	34
  2630     04A6  00B2               	movwf	((??_calc_map+2)^(0+128)+1)
  2631     04A7  082F               	movf	??_calc_map^(0+128),w
  2632     04A8  0731               	addwf	(??_calc_map+2)^(0+128),w
  2633     04A9  0086               	movwf	6
  2634     04AA  0830               	movf	(??_calc_map+1)^(0+128),w
  2635     04AB  3D32               	addwfc	(??_calc_map+3)^(0+128),w
  2636     04AC  0087               	movwf	7
  2637     04AD  30AC               	movlw	172
  2638     04AE  00B3               	movwf	(??_calc_map+4)^(0+128)
  2639     04AF  300D               	movlw	13
  2640     04B0  00B4               	movwf	((??_calc_map+4)^(0+128)+1)
  2641     04B1  3F40               	moviw [0]fsr1
  2642     04B2  0233               	subwf	(??_calc_map+4)^(0+128),w
  2643     04B3  00B5               	movwf	(??_calc_map+6)^(0+128)
  2644     04B4  3F41               	moviw [1]fsr1
  2645     04B5  3B34               	subwfb	(??_calc_map+5)^(0+128),w
  2646     04B6  00B6               	movwf	((??_calc_map+6)^(0+128)+1)
  2647     04B7  36B6               	lsrf	((??_calc_map+6)^(0+128)+1),f
  2648     04B8  0CB5               	rrf	(??_calc_map+6)^(0+128),f
  2649     04B9  0835               	movf	(??_calc_map+6)^(0+128),w
  2650     04BA  00BE               	movwf	calc_map@temp1^(0+128)
  2651     04BB  0836               	movf	(??_calc_map+7)^(0+128),w
  2652     04BC  00BF               	movwf	(calc_map@temp1+1)^(0+128)
  2653     04BD  01C0               	clrf	(calc_map@temp1+2)^(0+128)
  2654     04BE                     l1746:
  2655                           
  2656                           ;main.c: 245:         temp = ((deg2time_coeff[a] * temp1) >> 10);
  2657     04BE  084F               	movf	calc_map@a^(0+128),w
  2658     04BF  00AF               	movwf	??_calc_map^(0+128)
  2659     04C0  01B0               	clrf	(??_calc_map^(0+128)+1)
  2660     04C1  082F               	movf	??_calc_map^(0+128),w
  2661     04C2  00A0               	movwf	___wmul@multiplier^(0+128)
  2662     04C3  0830               	movf	(??_calc_map+1)^(0+128),w
  2663     04C4  00A1               	movwf	(___wmul@multiplier+1)^(0+128)
  2664     04C5  3003               	movlw	3
  2665     04C6  00A2               	movwf	___wmul@multiplicand^(0+128)
  2666     04C7  3000               	movlw	0
  2667     04C8  00A3               	movwf	(___wmul@multiplicand^(0+128)+1)
  2668     04C9  318F  27B3  3183   	fcall	___wmul
  2669     04CC  3061               	movlw	97
  2670     04CD  0141               	movlb	1	; select bank1
  2671     04CE  00B1               	movwf	(??_calc_map+2)^(0+128)
  2672     04CF  3021               	movlw	33
  2673     04D0  00B2               	movwf	((??_calc_map+2)^(0+128)+1)
  2674     04D1  0820               	movf	?___wmul^(0+128),w
  2675     04D2  0731               	addwf	(??_calc_map+2)^(0+128),w
  2676     04D3  0086               	movwf	6
  2677     04D4  0821               	movf	(?___wmul+1)^(0+128),w
  2678     04D5  3D32               	addwfc	(??_calc_map+3)^(0+128),w
  2679     04D6  0087               	movwf	7
  2680     04D7  3F40               	moviw [0]fsr1
  2681     04D8  00A6               	movwf	___tmul@multiplier^(0+128)
  2682     04D9  3F41               	moviw [1]fsr1
  2683     04DA  00A7               	movwf	(___tmul@multiplier+1)^(0+128)
  2684     04DB  3F42               	moviw [2]fsr1
  2685     04DC  00A8               	movwf	(___tmul@multiplier+2)^(0+128)
  2686     04DD  083E               	movf	calc_map@temp1^(0+128),w
  2687     04DE  00A9               	movwf	___tmul@multiplicand^(0+128)
  2688     04DF  083F               	movf	(calc_map@temp1+1)^(0+128),w
  2689     04E0  00AA               	movwf	(___tmul@multiplicand+1)^(0+128)
  2690     04E1  0840               	movf	(calc_map@temp1+2)^(0+128),w
  2691     04E2  00AB               	movwf	(___tmul@multiplicand+2)^(0+128)
  2692     04E3  3187  27D4  3183   	fcall	___tmul
  2693     04E6  0141               	movlb	1	; select bank1
  2694     04E7  0826               	movf	?___tmul^(0+128),w
  2695     04E8  00B3               	movwf	(??_calc_map+4)^(0+128)
  2696     04E9  0827               	movf	(?___tmul+1)^(0+128),w
  2697     04EA  00B4               	movwf	((??_calc_map+4)^(0+128)+1)
  2698     04EB  0828               	movf	(?___tmul+2)^(0+128),w
  2699     04EC  00B5               	movwf	((??_calc_map+4)^(0+128)+2)
  2700     04ED  300A               	movlw	10
  2701     04EE                     u1195:
  2702     04EE  36B5               	lsrf	((??_calc_map+4)^(0+128)+2),f
  2703     04EF  0CB4               	rrf	((??_calc_map+4)^(0+128)+1),f
  2704     04F0  0CB3               	rrf	(??_calc_map+4)^(0+128),f
  2705     04F1                     u1190:
  2706     04F1  0B89               	decfsz	9,f
  2707     04F2  2CEE               	goto	u1195
  2708     04F3  0833               	movf	(??_calc_map+4)^(0+128),w
  2709     04F4  00BB               	movwf	calc_map@temp^(0+128)
  2710     04F5  0834               	movf	(??_calc_map+5)^(0+128),w
  2711     04F6  00BC               	movwf	(calc_map@temp+1)^(0+128)
  2712     04F7  0835               	movf	(??_calc_map+6)^(0+128),w
  2713     04F8  00BD               	movwf	(calc_map@temp+2)^(0+128)
  2714     04F9                     l1748:
  2715                           
  2716                           ;main.c: 246:         IG_table[a] = temp;
  2717     04F9  084F               	movf	calc_map@a^(0+128),w
  2718     04FA  00AF               	movwf	??_calc_map^(0+128)
  2719     04FB  01B0               	clrf	(??_calc_map^(0+128)+1)
  2720     04FC  35AF               	lslf	??_calc_map^(0+128),f
  2721     04FD  0DB0               	rlf	(??_calc_map^(0+128)+1),f
  2722     04FE  30EA               	movlw	234
  2723     04FF  00B1               	movwf	(??_calc_map+2)^(0+128)
  2724     0500  3022               	movlw	34
  2725     0501  00B2               	movwf	((??_calc_map+2)^(0+128)+1)
  2726     0502  082F               	movf	??_calc_map^(0+128),w
  2727     0503  0731               	addwf	(??_calc_map+2)^(0+128),w
  2728     0504  0086               	movwf	6
  2729     0505  0830               	movf	(??_calc_map+1)^(0+128),w
  2730     0506  3D32               	addwfc	(??_calc_map+3)^(0+128),w
  2731     0507  0087               	movwf	7
  2732     0508  083B               	movf	calc_map@temp^(0+128),w
  2733     0509  3FC0               	movwi [0]fsr1
  2734     050A  083C               	movf	(calc_map@temp+1)^(0+128),w
  2735     050B  3FC1               	movwi [1]fsr1
  2736     050C                     l1750:
  2737                           
  2738                           ;main.c: 247:     }
  2739     050C  3001               	movlw	1
  2740     050D  00AF               	movwf	??_calc_map^(0+128)
  2741     050E  082F               	movf	??_calc_map^(0+128),w
  2742     050F  07CF               	addwf	calc_map@a^(0+128),f
  2743     0510                     l1752:
  2744     0510  3083               	movlw	131
  2745     0511  024F               	subwf	calc_map@a^(0+128),w
  2746     0512  1C03               	skipc
  2747     0513  2D15               	goto	u1201
  2748     0514  2D16               	goto	u1200
  2749     0515                     u1201:
  2750     0515  2C9E               	goto	l1744
  2751     0516                     u1200:
  2752     0516                     l251:
  2753     0516  0008               	return
  2754     0517                     __end_of_calc_map:
  2755                           
  2756                           	psect	text9
  2757     0FB3                     __ptext9:	
  2758 ;; *************** function ___wmul *****************
  2759 ;; Defined at:
  2760 ;;		line 15 in file "C:\Program Files\Microchip\xc8\v2.45\pic\sources\c99\common\Umul16.c"
  2761 ;; Parameters:    Size  Location     Type
  2762 ;;  multiplier      2    0[BANK1 ] unsigned int 
  2763 ;;  multiplicand    2    2[BANK1 ] unsigned int 
  2764 ;; Auto vars:     Size  Location     Type
  2765 ;;  product         2    4[BANK1 ] unsigned int 
  2766 ;; Return value:  Size  Location     Type
  2767 ;;                  2    0[BANK1 ] unsigned int 
  2768 ;; Registers used:
  2769 ;;		wreg, status,2, status,0
  2770 ;; Tracked objects:
  2771 ;;		On entry : 0/0
  2772 ;;		On exit  : 0/0
  2773 ;;		Unchanged: 0/0
  2774 ;; Data sizes:     COMMON   BANK0   BANK1   BANK2   BANK3   BANK4   BANK5   BANK6   BANK7   BANK8   BANK9  BANK10  BANK1
      +1  BANK12
  2775 ;;      Params:         0       0       4       0       0       0       0       0       0       0       0       0       
      +0       0
  2776 ;;      Locals:         0       0       2       0       0       0       0       0       0       0       0       0       
      +0       0
  2777 ;;      Temps:          0       0       0       0       0       0       0       0       0       0       0       0       
      +0       0
  2778 ;;      Totals:         0       0       6       0       0       0       0       0       0       0       0       0       
      +0       0
  2779 ;;Total ram usage:        6 bytes
  2780 ;; Hardware stack levels used: 1
  2781 ;; Hardware stack levels required when called: 3
  2782 ;; This function calls:
  2783 ;;		Nothing
  2784 ;; This function is called by:
  2785 ;;		_calc_map
  2786 ;; This function uses a non-reentrant model
  2787 ;;
  2788                           
  2789     0FB3                     ___wmul:	
  2790                           ;psect for function ___wmul
  2791                           
  2792     0FB3                     l1450:	
  2793                           ;incstack = 0
  2794                           ; Regs used in ___wmul: [wreg+status,2+status,0]
  2795                           
  2796     0FB3  0141               	movlb	1	; select bank1
  2797     0FB4  01A4               	clrf	___wmul@product^(0+128)
  2798     0FB5  01A5               	clrf	(___wmul@product+1)^(0+128)
  2799     0FB6                     l1452:
  2800     0FB6  1C20               	btfss	___wmul@multiplier^(0+128),0
  2801     0FB7  2FB9               	goto	u811
  2802     0FB8  2FBA               	goto	u810
  2803     0FB9                     u811:
  2804     0FB9  2FBE               	goto	l384
  2805     0FBA                     u810:
  2806     0FBA                     l1454:
  2807     0FBA  0822               	movf	___wmul@multiplicand^(0+128),w
  2808     0FBB  07A4               	addwf	___wmul@product^(0+128),f
  2809     0FBC  0823               	movf	(___wmul@multiplicand+1)^(0+128),w
  2810     0FBD  3DA5               	addwfc	(___wmul@product+1)^(0+128),f
  2811     0FBE                     l384:
  2812     0FBE  3001               	movlw	1
  2813     0FBF                     u825:
  2814     0FBF  35A2               	lslf	___wmul@multiplicand^(0+128),f
  2815     0FC0  0DA3               	rlf	(___wmul@multiplicand+1)^(0+128),f
  2816     0FC1  0B89               	decfsz	9,f
  2817     0FC2  2FBF               	goto	u825
  2818     0FC3                     l1456:
  2819     0FC3  3001               	movlw	1
  2820     0FC4                     u835:
  2821     0FC4  36A1               	lsrf	(___wmul@multiplier+1)^(0+128),f
  2822     0FC5  0CA0               	rrf	___wmul@multiplier^(0+128),f
  2823     0FC6  0B89               	decfsz	9,f
  2824     0FC7  2FC4               	goto	u835
  2825     0FC8                     l1458:
  2826     0FC8  0820               	movf	___wmul@multiplier^(0+128),w
  2827     0FC9  0421               	iorwf	(___wmul@multiplier+1)^(0+128),w
  2828     0FCA  1D03               	btfss	3,2
  2829     0FCB  2FCD               	goto	u841
  2830     0FCC  2FCE               	goto	u840
  2831     0FCD                     u841:
  2832     0FCD  2FB6               	goto	l1452
  2833     0FCE                     u840:
  2834     0FCE                     l1460:
  2835     0FCE  0825               	movf	(___wmul@product+1)^(0+128),w
  2836     0FCF  00A1               	movwf	(?___wmul+1)^(0+128)
  2837     0FD0  0824               	movf	___wmul@product^(0+128),w
  2838     0FD1  00A0               	movwf	?___wmul^(0+128)
  2839     0FD2                     l386:
  2840     0FD2  0008               	return
  2841     0FD3                     __end_of___wmul:
  2842                           
  2843                           	psect	text10
  2844     07D4                     __ptext10:	
  2845 ;; *************** function ___tmul *****************
  2846 ;; Defined at:
  2847 ;;		line 15 in file "C:\Program Files\Microchip\xc8\v2.45\pic\sources\c99\common\Umul24.c"
  2848 ;; Parameters:    Size  Location     Type
  2849 ;;  multiplier      3    6[BANK1 ] unsigned um
  2850 ;;  multiplicand    3    9[BANK1 ] unsigned um
  2851 ;; Auto vars:     Size  Location     Type
  2852 ;;  product         3   12[BANK1 ] unsigned um
  2853 ;; Return value:  Size  Location     Type
  2854 ;;                  3    6[BANK1 ] unsigned um
  2855 ;; Registers used:
  2856 ;;		wreg, status,2, status,0
  2857 ;; Tracked objects:
  2858 ;;		On entry : 0/0
  2859 ;;		On exit  : 0/0
  2860 ;;		Unchanged: 0/0
  2861 ;; Data sizes:     COMMON   BANK0   BANK1   BANK2   BANK3   BANK4   BANK5   BANK6   BANK7   BANK8   BANK9  BANK10  BANK1
      +1  BANK12
  2862 ;;      Params:         0       0       6       0       0       0       0       0       0       0       0       0       
      +0       0
  2863 ;;      Locals:         0       0       3       0       0       0       0       0       0       0       0       0       
      +0       0
  2864 ;;      Temps:          0       0       0       0       0       0       0       0       0       0       0       0       
      +0       0
  2865 ;;      Totals:         0       0       9       0       0       0       0       0       0       0       0       0       
      +0       0
  2866 ;;Total ram usage:        9 bytes
  2867 ;; Hardware stack levels used: 1
  2868 ;; Hardware stack levels required when called: 3
  2869 ;; This function calls:
  2870 ;;		Nothing
  2871 ;; This function is called by:
  2872 ;;		_calc_map
  2873 ;; This function uses a non-reentrant model
  2874 ;;
  2875                           
  2876     07D4                     ___tmul:	
  2877                           ;psect for function ___tmul
  2878                           
  2879     07D4                     l1464:	
  2880                           ;incstack = 0
  2881                           ; Regs used in ___tmul: [wreg+status,2+status,0]
  2882                           
  2883     07D4  3000               	movlw	0
  2884     07D5  0141               	movlb	1	; select bank1
  2885     07D6  00AC               	movwf	___tmul@product^(0+128)
  2886     07D7  3000               	movlw	0
  2887     07D8  00AD               	movwf	(___tmul@product+1)^(0+128)
  2888     07D9  3000               	movlw	0
  2889     07DA  00AE               	movwf	(___tmul@product+2)^(0+128)
  2890     07DB                     l1466:
  2891     07DB  1C26               	btfss	___tmul@multiplier^(0+128),0
  2892     07DC  2FDE               	goto	u851
  2893     07DD  2FDF               	goto	u850
  2894     07DE                     u851:
  2895     07DE  2FE5               	goto	l1470
  2896     07DF                     u850:
  2897     07DF                     l1468:
  2898     07DF  0829               	movf	___tmul@multiplicand^(0+128),w
  2899     07E0  07AC               	addwf	___tmul@product^(0+128),f
  2900     07E1  082A               	movf	(___tmul@multiplicand+1)^(0+128),w
  2901     07E2  3DAD               	addwfc	(___tmul@product+1)^(0+128),f
  2902     07E3  082B               	movf	(___tmul@multiplicand+2)^(0+128),w
  2903     07E4  3DAE               	addwfc	(___tmul@product+2)^(0+128),f
  2904     07E5                     l1470:
  2905     07E5  3001               	movlw	1
  2906     07E6                     u865:
  2907     07E6  35A9               	lslf	___tmul@multiplicand^(0+128),f
  2908     07E7  0DAA               	rlf	(___tmul@multiplicand+1)^(0+128),f
  2909     07E8  0DAB               	rlf	(___tmul@multiplicand+2)^(0+128),f
  2910     07E9  0B89               	decfsz	9,f
  2911     07EA  2FE6               	goto	u865
  2912     07EB                     l1472:
  2913     07EB  3001               	movlw	1
  2914     07EC                     u875:
  2915     07EC  36A8               	lsrf	(___tmul@multiplier+2)^(0+128),f
  2916     07ED  0CA7               	rrf	(___tmul@multiplier+1)^(0+128),f
  2917     07EE  0CA6               	rrf	___tmul@multiplier^(0+128),f
  2918     07EF  0B89               	decfsz	9,f
  2919     07F0  2FEC               	goto	u875
  2920     07F1  0828               	movf	(___tmul@multiplier+2)^(0+128),w
  2921     07F2  0427               	iorwf	(___tmul@multiplier+1)^(0+128),w
  2922     07F3  0426               	iorwf	___tmul@multiplier^(0+128),w
  2923     07F4  1D03               	skipz
  2924     07F5  2FF7               	goto	u881
  2925     07F6  2FF8               	goto	u880
  2926     07F7                     u881:
  2927     07F7  2FDB               	goto	l1466
  2928     07F8                     u880:
  2929     07F8                     l1474:
  2930     07F8  082C               	movf	___tmul@product^(0+128),w
  2931     07F9  00A6               	movwf	?___tmul^(0+128)
  2932     07FA  082D               	movf	(___tmul@product+1)^(0+128),w
  2933     07FB  00A7               	movwf	(?___tmul+1)^(0+128)
  2934     07FC  082E               	movf	(___tmul@product+2)^(0+128),w
  2935     07FD  00A8               	movwf	(?___tmul+2)^(0+128)
  2936     07FE                     l392:
  2937     07FE  0008               	return
  2938     07FF                     __end_of___tmul:
  2939                           
  2940                           	psect	text11
  2941     075B                     __ptext11:	
  2942 ;; *************** function ___lwdiv *****************
  2943 ;; Defined at:
  2944 ;;		line 5 in file "C:\Program Files\Microchip\xc8\v2.45\pic\sources\c99\common\lwdiv.c"
  2945 ;; Parameters:    Size  Location     Type
  2946 ;;  divisor         2    0[BANK1 ] unsigned int 
  2947 ;;  dividend        2    2[BANK1 ] unsigned int 
  2948 ;; Auto vars:     Size  Location     Type
  2949 ;;  quotient        2    5[BANK1 ] unsigned int 
  2950 ;;  counter         1    7[BANK1 ] unsigned char 
  2951 ;; Return value:  Size  Location     Type
  2952 ;;                  2    0[BANK1 ] unsigned int 
  2953 ;; Registers used:
  2954 ;;		wreg, status,2, status,0
  2955 ;; Tracked objects:
  2956 ;;		On entry : 0/0
  2957 ;;		On exit  : 0/0
  2958 ;;		Unchanged: 0/0
  2959 ;; Data sizes:     COMMON   BANK0   BANK1   BANK2   BANK3   BANK4   BANK5   BANK6   BANK7   BANK8   BANK9  BANK10  BANK1
      +1  BANK12
  2960 ;;      Params:         0       0       4       0       0       0       0       0       0       0       0       0       
      +0       0
  2961 ;;      Locals:         0       0       3       0       0       0       0       0       0       0       0       0       
      +0       0
  2962 ;;      Temps:          0       0       1       0       0       0       0       0       0       0       0       0       
      +0       0
  2963 ;;      Totals:         0       0       8       0       0       0       0       0       0       0       0       0       
      +0       0
  2964 ;;Total ram usage:        8 bytes
  2965 ;; Hardware stack levels used: 1
  2966 ;; Hardware stack levels required when called: 3
  2967 ;; This function calls:
  2968 ;;		Nothing
  2969 ;; This function is called by:
  2970 ;;		_calc_map
  2971 ;; This function uses a non-reentrant model
  2972 ;;
  2973                           
  2974     075B                     ___lwdiv:	
  2975                           ;psect for function ___lwdiv
  2976                           
  2977     075B                     l1478:	
  2978                           ;incstack = 0
  2979                           ; Regs used in ___lwdiv: [wreg+status,2+status,0]
  2980                           
  2981     075B  0141               	movlb	1	; select bank1
  2982     075C  01A5               	clrf	___lwdiv@quotient^(0+128)
  2983     075D  01A6               	clrf	(___lwdiv@quotient+1)^(0+128)
  2984     075E                     l1480:
  2985     075E  0820               	movf	___lwdiv@divisor^(0+128),w
  2986     075F  0421               	iorwf	(___lwdiv@divisor+1)^(0+128),w
  2987     0760  1903               	btfsc	3,2
  2988     0761  2F63               	goto	u891
  2989     0762  2F64               	goto	u890
  2990     0763                     u891:
  2991     0763  2F93               	goto	l1500
  2992     0764                     u890:
  2993     0764                     l1482:
  2994     0764  01A7               	clrf	___lwdiv@counter^(0+128)
  2995     0765  0AA7               	incf	___lwdiv@counter^(0+128),f
  2996     0766  2F70               	goto	l1488
  2997     0767                     l1484:
  2998     0767  3001               	movlw	1
  2999     0768                     u905:
  3000     0768  35A0               	lslf	___lwdiv@divisor^(0+128),f
  3001     0769  0DA1               	rlf	(___lwdiv@divisor+1)^(0+128),f
  3002     076A  0B89               	decfsz	9,f
  3003     076B  2F68               	goto	u905
  3004     076C                     l1486:
  3005     076C  3001               	movlw	1
  3006     076D  00A4               	movwf	??___lwdiv^(0+128)
  3007     076E  0824               	movf	??___lwdiv^(0+128),w
  3008     076F  07A7               	addwf	___lwdiv@counter^(0+128),f
  3009     0770                     l1488:
  3010     0770  1FA1               	btfss	(___lwdiv@divisor+1)^(0+128),7
  3011     0771  2F73               	goto	u911
  3012     0772  2F74               	goto	u910
  3013     0773                     u911:
  3014     0773  2F67               	goto	l1484
  3015     0774                     u910:
  3016     0774                     l1490:
  3017     0774  3001               	movlw	1
  3018     0775                     u925:
  3019     0775  35A5               	lslf	___lwdiv@quotient^(0+128),f
  3020     0776  0DA6               	rlf	(___lwdiv@quotient+1)^(0+128),f
  3021     0777  0B89               	decfsz	9,f
  3022     0778  2F75               	goto	u925
  3023     0779  0821               	movf	(___lwdiv@divisor+1)^(0+128),w
  3024     077A  0223               	subwf	(___lwdiv@dividend+1)^(0+128),w
  3025     077B  1D03               	skipz
  3026     077C  2F7F               	goto	u935
  3027     077D  0820               	movf	___lwdiv@divisor^(0+128),w
  3028     077E  0222               	subwf	___lwdiv@dividend^(0+128),w
  3029     077F                     u935:
  3030     077F  1C03               	skipc
  3031     0780  2F82               	goto	u931
  3032     0781  2F83               	goto	u930
  3033     0782                     u931:
  3034     0782  2F88               	goto	l1496
  3035     0783                     u930:
  3036     0783                     l1492:
  3037     0783  0820               	movf	___lwdiv@divisor^(0+128),w
  3038     0784  02A2               	subwf	___lwdiv@dividend^(0+128),f
  3039     0785  0821               	movf	(___lwdiv@divisor+1)^(0+128),w
  3040     0786  3BA3               	subwfb	(___lwdiv@dividend+1)^(0+128),f
  3041     0787                     l1494:
  3042     0787  1425               	bsf	___lwdiv@quotient^(0+128),0
  3043     0788                     l1496:
  3044     0788  3001               	movlw	1
  3045     0789                     u945:
  3046     0789  36A1               	lsrf	(___lwdiv@divisor+1)^(0+128),f
  3047     078A  0CA0               	rrf	___lwdiv@divisor^(0+128),f
  3048     078B  0B89               	decfsz	9,f
  3049     078C  2F89               	goto	u945
  3050     078D                     l1498:
  3051     078D  3001               	movlw	1
  3052     078E  02A7               	subwf	___lwdiv@counter^(0+128),f
  3053     078F  1D03               	btfss	3,2
  3054     0790  2F92               	goto	u951
  3055     0791  2F93               	goto	u950
  3056     0792                     u951:
  3057     0792  2F74               	goto	l1490
  3058     0793                     u950:
  3059     0793                     l1500:
  3060     0793  0826               	movf	(___lwdiv@quotient+1)^(0+128),w
  3061     0794  00A1               	movwf	(?___lwdiv+1)^(0+128)
  3062     0795  0825               	movf	___lwdiv@quotient^(0+128),w
  3063     0796  00A0               	movwf	?___lwdiv^(0+128)
  3064     0797                     l664:
  3065     0797  0008               	return
  3066     0798                     __end_of___lwdiv:
  3067                           
  3068                           	psect	intentry
  3069     0004                     __pintentry:	
  3070 ;; *************** function _InterruptManager *****************
  3071 ;; Defined at:
  3072 ;;		line 283 in file "main.c"
  3073 ;; Parameters:    Size  Location     Type
  3074 ;;		None
  3075 ;; Auto vars:     Size  Location     Type
  3076 ;;  pu1_2_period    2   42[BANK0 ] unsigned short 
  3077 ;;  t1_count        2   40[BANK0 ] unsigned short 
  3078 ;; Return value:  Size  Location     Type
  3079 ;;                  1    wreg      void 
  3080 ;; Registers used:
  3081 ;;		wreg, fsr0l, fsr0h, fsr1l, fsr1h, status,2, status,0, pclath, cstack
  3082 ;; Tracked objects:
  3083 ;;		On entry : 0/0
  3084 ;;		On exit  : 0/0
  3085 ;;		Unchanged: 0/0
  3086 ;; Data sizes:     COMMON   BANK0   BANK1   BANK2   BANK3   BANK4   BANK5   BANK6   BANK7   BANK8   BANK9  BANK10  BANK1
      +1  BANK12
  3087 ;;      Params:         0       0       0       0       0       0       0       0       0       0       0       0       
      +0       0
  3088 ;;      Locals:         0       4       0       0       0       0       0       0       0       0       0       0       
      +0       0
  3089 ;;      Temps:          0       4       0       0       0       0       0       0       0       0       0       0       
      +0       0
  3090 ;;      Totals:         0       8       0       0       0       0       0       0       0       0       0       0       
      +0       0
  3091 ;;Total ram usage:        8 bytes
  3092 ;; Hardware stack levels used: 1
  3093 ;; Hardware stack levels required when called: 2
  3094 ;; This function calls:
  3095 ;;		_ccp1_disable
  3096 ;;		_ccp2_enable
  3097 ;;		_ignition_disable
  3098 ;;		i1___lwdiv
  3099 ;;		i1_calc_map
  3100 ;;		i1_ccp1_enable
  3101 ;;		i1_ccp2_disable
  3102 ;; This function is called by:
  3103 ;;		Interrupt level 1
  3104 ;; This function uses a non-reentrant model
  3105 ;;
  3106                           
  3107     0004                     _InterruptManager:
  3108                           
  3109                           ;incstack = 0
  3110     0004  147E               	bsf	int$flags,0	;set compiler interrupt flag (level 1)
  3111                           
  3112                           ; Regs used in _InterruptManager: [wreg-fsr1h+status,2+status,0+pclath+cstack]
  3113     0005  3180               	pagesel	$
  3114     0006                     i1l1878:
  3115                           
  3116                           ;main.c: 284:     uint16_t t1_count;;main.c: 286:     if (CCP1IF) {
  3117     0006  014E               	movlb	14	; select bank14
  3118     0007  1F8D               	btfss	13,7	;volatile
  3119     0008  280A               	goto	u129_21
  3120     0009  280B               	goto	u129_20
  3121     000A                     u129_21:
  3122     000A  28E4               	goto	i1l1966
  3123     000B                     u129_20:
  3124     000B                     i1l1880:
  3125                           
  3126                           ;main.c: 287:         if (EG_state == EG_RUN) {
  3127     000B  0140               	movlb	0	; select bank0
  3128     000C  0350               	decf	_EG_state,w
  3129     000D  1D03               	btfss	3,2
  3130     000E  2810               	goto	u130_21
  3131     000F  2811               	goto	u130_20
  3132     0010                     u130_21:
  3133     0010  28D6               	goto	i1l1956
  3134     0011                     u130_20:
  3135     0011                     i1l1882:
  3136                           
  3137                           ;main.c: 288:             TMR1ON = 0;
  3138     0011  0144               	movlb	4	; select bank4
  3139     0012  100E               	bcf	14,0	;volatile
  3140     0013                     i1l1884:
  3141                           
  3142                           ;main.c: 289:             TMR1H = 0x00;
  3143     0013  018D               	clrf	13	;volatile
  3144                           
  3145                           ;main.c: 290:             TMR1L = 0x00;
  3146     0014  018C               	clrf	12	;volatile
  3147     0015                     i1l1886:
  3148                           
  3149                           ;main.c: 291:             TMR1ON = 1;
  3150     0015  140E               	bsf	14,0	;volatile
  3151     0016                     i1l1888:
  3152                           
  3153                           ;main.c: 292:             ccp1_disable();
  3154     0016  318F  2707  3180   	fcall	_ccp1_disable
  3155     0019                     i1l1890:
  3156                           
  3157                           ;main.c: 294:             rpm = (uint8_t) (numerator_rpm / (CCPR1 >> 4));
  3158     0019  0146               	movlb	6	; select bank6
  3159     001A  0E0C               	swapf	12,w	;volatile
  3160     001B  390F               	andlw	15
  3161     001C  00F0               	movwf	i1___lwdiv@divisor
  3162     001D  0E0D               	swapf	13,w	;volatile
  3163     001E  39F0               	andlw	240
  3164     001F  04F0               	iorwf	i1___lwdiv@divisor,f
  3165     0020  0E0D               	swapf	13,w	;volatile
  3166     0021  390F               	andlw	15
  3167     0022  00F1               	movwf	i1___lwdiv@divisor+1
  3168     0023  307C               	movlw	124
  3169     0024  00F2               	movwf	i1___lwdiv@dividend
  3170     0025  3092               	movlw	146
  3171     0026  00F3               	movwf	i1___lwdiv@dividend+1
  3172     0027  3187  2798  3180   	fcall	i1___lwdiv
  3173     002A  0870               	movf	?i1___lwdiv,w
  3174     002B  0140               	movlb	0	; select bank0
  3175     002C  00D2               	movwf	_rpm
  3176     002D                     i1l1892:
  3177                           
  3178                           ;main.c: 296:             if ((rpm > (15))&&(rpm <= (130))) {
  3179     002D  3010               	movlw	16
  3180     002E  0252               	subwf	_rpm,w
  3181     002F  1C03               	skipc
  3182     0030  2832               	goto	u131_21
  3183     0031  2833               	goto	u131_20
  3184     0032                     u131_21:
  3185     0032  2877               	goto	i1l1914
  3186     0033                     u131_20:
  3187     0033                     i1l1894:
  3188     0033  3083               	movlw	131
  3189     0034  0252               	subwf	_rpm,w
  3190     0035  1803               	skipnc
  3191     0036  2838               	goto	u132_21
  3192     0037  2839               	goto	u132_20
  3193     0038                     u132_21:
  3194     0038  2877               	goto	i1l1914
  3195     0039                     u132_20:
  3196     0039                     i1l1896:
  3197                           
  3198                           ;main.c: 297:                 ig_counter = IG_table[rpm];
  3199     0039  0852               	movf	_rpm,w
  3200     003A  00C4               	movwf	??_InterruptManager
  3201     003B  01C5               	clrf	??_InterruptManager+1
  3202     003C  35C4               	lslf	??_InterruptManager,f
  3203     003D  0DC5               	rlf	??_InterruptManager+1,f
  3204     003E  30EA               	movlw	234
  3205     003F  00C6               	movwf	??_InterruptManager+2
  3206     0040  3022               	movlw	34
  3207     0041  00C7               	movwf	??_InterruptManager+3
  3208     0042  0844               	movf	??_InterruptManager,w
  3209     0043  0746               	addwf	??_InterruptManager+2,w
  3210     0044  0086               	movwf	6
  3211     0045  0845               	movf	??_InterruptManager+1,w
  3212     0046  3D47               	addwfc	??_InterruptManager+3,w
  3213     0047  0087               	movwf	7
  3214     0048  3F40               	moviw [0]fsr1
  3215     0049  00CC               	movwf	_ig_counter
  3216     004A  3F41               	moviw [1]fsr1
  3217     004B  00CD               	movwf	_ig_counter+1
  3218     004C                     i1l1898:
  3219                           
  3220                           ;main.c: 298:                 LATC2 = (0);
  3221     004C  111A               	bcf	26,2	;volatile
  3222     004D                     i1l1900:
  3223                           
  3224                           ;main.c: 299:                 if ((ig_counter - 15) > TMR1) {
  3225     004D  084C               	movf	_ig_counter,w
  3226     004E  3EF1               	addlw	241
  3227     004F  00C4               	movwf	??_InterruptManager
  3228     0050  30FF               	movlw	255
  3229     0051  3D4D               	addwfc	_ig_counter+1,w
  3230     0052  00C5               	movwf	??_InterruptManager+1
  3231     0053  0845               	movf	??_InterruptManager+1,w
  3232     0054  0144               	movlb	4	; select bank4
  3233     0055  020D               	subwf	13,w	;volatile
  3234     0056  1D03               	skipz
  3235     0057  285C               	goto	u133_25
  3236     0058  0140               	movlb	0	; select bank0
  3237     0059  0844               	movf	??_InterruptManager,w
  3238     005A  0144               	movlb	4	; select bank4
  3239     005B  020C               	subwf	12,w	;volatile
  3240     005C                     u133_25:
  3241     005C  1803               	skipnc
  3242     005D  285F               	goto	u133_21
  3243     005E  2860               	goto	u133_20
  3244     005F                     u133_21:
  3245     005F  286C               	goto	i1l1906
  3246     0060                     u133_20:
  3247     0060                     i1l1902:
  3248                           
  3249                           ;main.c: 300:                     CCPR2 = ig_counter;
  3250     0060  0140               	movlb	0	; select bank0
  3251     0061  084D               	movf	_ig_counter+1,w
  3252     0062  0146               	movlb	6	; select bank6
  3253     0063  0091               	movwf	17	;volatile
  3254     0064  0140               	movlb	0	; select bank0
  3255     0065  084C               	movf	_ig_counter,w
  3256     0066  0146               	movlb	6	; select bank6
  3257     0067  0090               	movwf	16	;volatile
  3258     0068                     i1l1904:
  3259                           
  3260                           ;main.c: 301:                     ccp2_enable();
  3261     0068  318F  271C  3180   	fcall	_ccp2_enable
  3262                           
  3263                           ;main.c: 302:                 } else {
  3264     006B  287C               	goto	i1l1918
  3265     006C                     i1l1906:
  3266                           
  3267                           ;main.c: 303:                     ccp2_disable();
  3268     006C  318F  270C  3180   	fcall	i1_ccp2_disable
  3269     006F                     i1l1908:
  3270                           
  3271                           ;main.c: 304:                     LATC1 = (1);
  3272     006F  0140               	movlb	0	; select bank0
  3273     0070  149A               	bsf	26,1	;volatile
  3274     0071                     i1l1910:
  3275                           
  3276                           ;main.c: 305:                     _delay((unsigned long)((60)*(32000000/4000000.0)));
  3277     0071  30A0               	movlw	160
  3278     0072                     u155_27:
  3279     0072  0B89               	decfsz	9,f
  3280     0073  2872               	goto	u155_27
  3281     0074                     i1l1912:
  3282                           
  3283                           ;main.c: 306:                     LATC1 = (0);
  3284     0074  0140               	movlb	0	; select bank0
  3285     0075  109A               	bcf	26,1	;volatile
  3286     0076  287C               	goto	i1l1918
  3287     0077                     i1l1914:
  3288                           
  3289                           ;main.c: 310:                 ccp2_disable();
  3290     0077  318F  270C  3180   	fcall	i1_ccp2_disable
  3291     007A                     i1l1916:
  3292                           
  3293                           ;main.c: 311:                 LATC2 = (0);
  3294     007A  0140               	movlb	0	; select bank0
  3295     007B  111A               	bcf	26,2	;volatile
  3296     007C                     i1l1918:
  3297                           
  3298                           ;main.c: 315:             if (revlimit_state == REVLIMIT_ENABLE) {
  3299     007C  0140               	movlb	0	; select bank0
  3300     007D  084F               	movf	_revlimit_state,w
  3301     007E  1D03               	btfss	3,2
  3302     007F  2881               	goto	u134_21
  3303     0080  2882               	goto	u134_20
  3304     0081                     u134_21:
  3305     0081  28AD               	goto	i1l1936
  3306     0082                     u134_20:
  3307     0082                     i1l1920:
  3308                           
  3309                           ;main.c: 316:                 if (rpm > (97)) {
  3310     0082  3062               	movlw	98
  3311     0083  0252               	subwf	_rpm,w
  3312     0084  1C03               	skipc
  3313     0085  2887               	goto	u135_21
  3314     0086  2888               	goto	u135_20
  3315     0087                     u135_21:
  3316     0087  2895               	goto	i1l1926
  3317     0088                     u135_20:
  3318     0088                     i1l1922:
  3319                           
  3320                           ;main.c: 317:                     orev_counter++;
  3321     0088  3001               	movlw	1
  3322     0089  00C4               	movwf	??_InterruptManager
  3323     008A  0844               	movf	??_InterruptManager,w
  3324     008B  07D1               	addwf	_orev_counter,f
  3325                           
  3326                           ;main.c: 318:                     if (orev_counter == 1) ignition_disable();
  3327     008C  0351               	decf	_orev_counter,w
  3328     008D  1D03               	btfss	3,2
  3329     008E  2890               	goto	u136_21
  3330     008F  2891               	goto	u136_20
  3331     0090                     u136_21:
  3332     0090  28AD               	goto	i1l1936
  3333     0091                     u136_20:
  3334     0091                     i1l1924:
  3335     0091  318F  2737  3180   	fcall	_ignition_disable
  3336     0094  28AD               	goto	i1l1936
  3337     0095                     i1l1926:
  3338     0095  3063               	movlw	99
  3339     0096  0252               	subwf	_rpm,w
  3340     0097  1C03               	skipc
  3341     0098  289A               	goto	u137_21
  3342     0099  289B               	goto	u137_20
  3343     009A                     u137_21:
  3344     009A  28A6               	goto	i1l1932
  3345     009B                     u137_20:
  3346     009B                     i1l1928:
  3347                           
  3348                           ;main.c: 320:                     orev_counter++;
  3349     009B  3001               	movlw	1
  3350     009C  00C4               	movwf	??_InterruptManager
  3351     009D  0844               	movf	??_InterruptManager,w
  3352     009E  07D1               	addwf	_orev_counter,f
  3353                           
  3354                           ;main.c: 321:                     if (orev_counter == 2) ignition_disable();
  3355     009F  3002               	movlw	2
  3356     00A0  0651               	xorwf	_orev_counter,w
  3357     00A1  1D03               	btfss	3,2
  3358     00A2  28A4               	goto	u138_21
  3359     00A3  28A5               	goto	u138_20
  3360     00A4                     u138_21:
  3361     00A4  28AD               	goto	i1l276
  3362     00A5                     u138_20:
  3363     00A5  2891               	goto	i1l1924
  3364     00A6                     i1l1932:
  3365     00A6  3064               	movlw	100
  3366     00A7  0252               	subwf	_rpm,w
  3367     00A8  1C03               	skipc
  3368     00A9  28AB               	goto	u139_21
  3369     00AA  28AC               	goto	u139_20
  3370     00AB                     u139_21:
  3371     00AB  28AD               	goto	i1l276
  3372     00AC                     u139_20:
  3373     00AC  2891               	goto	i1l1924
  3374     00AD                     i1l276:
  3375     00AD                     i1l1936:
  3376                           
  3377                           ;main.c: 326:             if (pwj_state == PWJ_ENABLE) {
  3378     00AD  0140               	movlb	0	; select bank0
  3379     00AE  084E               	movf	_pwj_state,w
  3380     00AF  1D03               	btfss	3,2
  3381     00B0  28B2               	goto	u140_21
  3382     00B1  28B3               	goto	u140_20
  3383     00B2                     u140_21:
  3384     00B2  28C3               	goto	i1l1946
  3385     00B3                     u140_20:
  3386     00B3                     i1l1938:
  3387                           
  3388                           ;main.c: 327:                 if (rpm > (85)) LATA0 = 1;
  3389     00B3  3056               	movlw	86
  3390     00B4  0252               	subwf	_rpm,w
  3391     00B5  1C03               	skipc
  3392     00B6  28B8               	goto	u141_21
  3393     00B7  28B9               	goto	u141_20
  3394     00B8                     u141_21:
  3395     00B8  28BB               	goto	i1l1942
  3396     00B9                     u141_20:
  3397     00B9                     i1l1940:
  3398     00B9  1418               	bsf	24,0	;volatile
  3399     00BA  28D6               	goto	i1l1956
  3400     00BB                     i1l1942:
  3401     00BB  3053               	movlw	83
  3402     00BC  0252               	subwf	_rpm,w
  3403     00BD  1803               	skipnc
  3404     00BE  28C0               	goto	u142_21
  3405     00BF  28C1               	goto	u142_20
  3406     00C0                     u142_21:
  3407     00C0  28D6               	goto	i1l285
  3408     00C1                     u142_20:
  3409     00C1                     i1l1944:
  3410     00C1  1018               	bcf	24,0	;volatile
  3411     00C2  28D6               	goto	i1l1956
  3412     00C3                     i1l1946:
  3413     00C3  034E               	decf	_pwj_state,w
  3414     00C4  1D03               	btfss	3,2
  3415     00C5  28C7               	goto	u143_21
  3416     00C6  28C8               	goto	u143_20
  3417     00C7                     u143_21:
  3418     00C7  28D6               	goto	i1l1956
  3419     00C8                     u143_20:
  3420     00C8                     i1l1948:
  3421                           
  3422                           ;main.c: 330:                 if (rpm > (30)) LATA0 = 1;
  3423     00C8  301F               	movlw	31
  3424     00C9  0252               	subwf	_rpm,w
  3425     00CA  1C03               	skipc
  3426     00CB  28CD               	goto	u144_21
  3427     00CC  28CE               	goto	u144_20
  3428     00CD                     u144_21:
  3429     00CD  28CF               	goto	i1l1952
  3430     00CE                     u144_20:
  3431     00CE  28B9               	goto	i1l1940
  3432     00CF                     i1l1952:
  3433     00CF  301C               	movlw	28
  3434     00D0  0252               	subwf	_rpm,w
  3435     00D1  1803               	skipnc
  3436     00D2  28D4               	goto	u145_21
  3437     00D3  28D5               	goto	u145_20
  3438     00D4                     u145_21:
  3439     00D4  28D6               	goto	i1l1956
  3440     00D5                     u145_20:
  3441     00D5  28C1               	goto	i1l1944
  3442     00D6                     i1l285:
  3443     00D6                     i1l1956:
  3444                           
  3445                           ;main.c: 335:         if (EG_state == EG_LOW) {
  3446     00D6  0850               	movf	_EG_state,w
  3447     00D7  1D03               	btfss	3,2
  3448     00D8  28DA               	goto	u146_21
  3449     00D9  28DB               	goto	u146_20
  3450     00DA                     u146_21:
  3451     00DA  28E2               	goto	i1l1964
  3452     00DB                     u146_20:
  3453     00DB                     i1l1958:
  3454                           
  3455                           ;main.c: 336:             TMR1 = 0;
  3456     00DB  0144               	movlb	4	; select bank4
  3457     00DC  018C               	clrf	12	;volatile
  3458     00DD  018D               	clrf	13	;volatile
  3459     00DE                     i1l1960:
  3460                           
  3461                           ;main.c: 337:             TMR1ON = 1;
  3462     00DE  140E               	bsf	14,0	;volatile
  3463     00DF                     i1l1962:
  3464                           
  3465                           ;main.c: 338:             EG_state = EG_RUN;
  3466     00DF  0140               	movlb	0	; select bank0
  3467     00E0  01D0               	clrf	_EG_state
  3468     00E1  0AD0               	incf	_EG_state,f
  3469     00E2                     i1l1964:
  3470                           
  3471                           ;main.c: 340:         CCP1IF = 0;
  3472     00E2  014E               	movlb	14	; select bank14
  3473     00E3  138D               	bcf	13,7	;volatile
  3474     00E4                     i1l1966:
  3475                           
  3476                           ;main.c: 343:     if (CCP2IF) {
  3477     00E4  1F8E               	btfss	14,7	;volatile
  3478     00E5  28E7               	goto	u147_21
  3479     00E6  28E8               	goto	u147_20
  3480     00E7                     u147_21:
  3481     00E7  28FD               	goto	i1l1978
  3482     00E8                     u147_20:
  3483     00E8                     i1l1968:
  3484                           
  3485                           ;main.c: 344:         _delay((unsigned long)((60)*(32000000/4000000.0)));
  3486     00E8  30A0               	movlw	160
  3487     00E9                     u156_27:
  3488     00E9  0B89               	decfsz	9,f
  3489     00EA  28E9               	goto	u156_27
  3490     00EB                     i1l1970:
  3491                           
  3492                           ;main.c: 345:         ccp2_disable();
  3493     00EB  318F  270C  3180   	fcall	i1_ccp2_disable
  3494     00EE                     i1l1972:
  3495                           
  3496                           ;main.c: 346:         LATC1 = 0;
  3497     00EE  0140               	movlb	0	; select bank0
  3498     00EF  109A               	bcf	26,1	;volatile
  3499                           
  3500                           ;main.c: 347:         ccp1_enable();
  3501     00F0  318F  2725  3180   	fcall	i1_ccp1_enable
  3502     00F3                     i1l1974:
  3503                           
  3504                           ;main.c: 348:         if (rpm < 40) calc_map();
  3505     00F3  3028               	movlw	40
  3506     00F4  0140               	movlb	0	; select bank0
  3507     00F5  0252               	subwf	_rpm,w
  3508     00F6  1803               	skipnc
  3509     00F7  28F9               	goto	u148_21
  3510     00F8  28FA               	goto	u148_20
  3511     00F9                     u148_21:
  3512     00F9  28FD               	goto	i1l1978
  3513     00FA                     u148_20:
  3514     00FA                     i1l1976:
  3515     00FA  3181  2190  3180   	fcall	i1_calc_map
  3516     00FD                     i1l1978:
  3517                           
  3518                           ;main.c: 352:     if (IOCAF2) {
  3519     00FD  017E               	movlb	62	; select bank62
  3520     00FE  1D3F               	btfss	63,2	;volatile
  3521     00FF  2901               	goto	u149_21
  3522     0100  2902               	goto	u149_20
  3523     0101                     u149_21:
  3524     0101  293E               	goto	i1l1996
  3525     0102                     u149_20:
  3526     0102                     i1l1980:
  3527                           
  3528                           ;main.c: 353:         uint16_t pu1_2_period_count;;main.c: 354:         if (EG_state == 
      +                          EG_RUN) {
  3529     0102  0140               	movlb	0	; select bank0
  3530     0103  0350               	decf	_EG_state,w
  3531     0104  1D03               	btfss	3,2
  3532     0105  2907               	goto	u150_21
  3533     0106  2908               	goto	u150_20
  3534     0107                     u150_21:
  3535     0107  293C               	goto	i1l1994
  3536     0108                     u150_20:
  3537     0108                     i1l1982:
  3538                           
  3539                           ;main.c: 355:             pu1_2_period_count = TMR1;
  3540     0108  0144               	movlb	4	; select bank4
  3541     0109  080D               	movf	13,w	;volatile
  3542     010A  0140               	movlb	0	; select bank0
  3543     010B  00CB               	movwf	InterruptManager@pu1_2_period_count+1
  3544     010C  0144               	movlb	4	; select bank4
  3545     010D  080C               	movf	12,w	;volatile
  3546     010E  0140               	movlb	0	; select bank0
  3547     010F  00CA               	movwf	InterruptManager@pu1_2_period_count
  3548                           
  3549                           ;main.c: 356:             if ((rpm < 25)&&((t1_count - pu1_2_period_count)<(pu1_2_period
      +                          _count << 2))) {
  3550     0110  3019               	movlw	25
  3551     0111  0252               	subwf	_rpm,w
  3552     0112  1803               	skipnc
  3553     0113  2915               	goto	u151_21
  3554     0114  2916               	goto	u151_20
  3555     0115                     u151_21:
  3556     0115  292F               	goto	i1l1988
  3557     0116                     u151_20:
  3558     0116                     i1l1984:
  3559     0116  084B               	movf	InterruptManager@pu1_2_period_count+1,w
  3560     0117  00C5               	movwf	??_InterruptManager+1
  3561     0118  084A               	movf	InterruptManager@pu1_2_period_count,w
  3562     0119  00C4               	movwf	??_InterruptManager
  3563     011A  35C4               	lslf	??_InterruptManager,f
  3564     011B  0DC5               	rlf	??_InterruptManager+1,f
  3565     011C  35C4               	lslf	??_InterruptManager,f
  3566     011D  0DC5               	rlf	??_InterruptManager+1,f
  3567     011E  084A               	movf	InterruptManager@pu1_2_period_count,w
  3568     011F  0248               	subwf	InterruptManager@t1_count,w
  3569     0120  00C6               	movwf	??_InterruptManager+2
  3570     0121  084B               	movf	InterruptManager@pu1_2_period_count+1,w
  3571     0122  3B49               	subwfb	InterruptManager@t1_count+1,w
  3572     0123  00C7               	movwf	??_InterruptManager+3
  3573     0124  0845               	movf	??_InterruptManager+1,w
  3574     0125  0247               	subwf	??_InterruptManager+3,w
  3575     0126  1D03               	skipz
  3576     0127  292A               	goto	u152_25
  3577     0128  0844               	movf	??_InterruptManager,w
  3578     0129  0246               	subwf	??_InterruptManager+2,w
  3579     012A                     u152_25:
  3580     012A  1803               	skipnc
  3581     012B  292D               	goto	u152_21
  3582     012C  292E               	goto	u152_20
  3583     012D                     u152_21:
  3584     012D  292F               	goto	i1l1988
  3585     012E                     u152_20:
  3586     012E                     i1l1986:
  3587                           
  3588                           ;main.c: 357:                 LATC2 = (1);
  3589     012E  151A               	bsf	26,2	;volatile
  3590     012F                     i1l1988:
  3591                           
  3592                           ;main.c: 359:             ccp1_enable();
  3593     012F  318F  2725  3180   	fcall	i1_ccp1_enable
  3594     0132                     i1l1990:
  3595                           
  3596                           ;main.c: 360:             if (rpm < 40) calc_map();
  3597     0132  3028               	movlw	40
  3598     0133  0140               	movlb	0	; select bank0
  3599     0134  0252               	subwf	_rpm,w
  3600     0135  1803               	skipnc
  3601     0136  2938               	goto	u153_21
  3602     0137  2939               	goto	u153_20
  3603     0138                     u153_21:
  3604     0138  293C               	goto	i1l1994
  3605     0139                     u153_20:
  3606     0139                     i1l1992:
  3607     0139  3181  2190  3180   	fcall	i1_calc_map
  3608     013C                     i1l1994:
  3609                           
  3610                           ;main.c: 362:         IOCAF2 = 0;
  3611     013C  017E               	movlb	62	; select bank62
  3612     013D  113F               	bcf	63,2	;volatile
  3613     013E                     i1l1996:
  3614                           
  3615                           ;main.c: 365:     if (TMR1IF) {
  3616     013E  014E               	movlb	14	; select bank14
  3617     013F  1E8D               	btfss	13,5	;volatile
  3618     0140  2942               	goto	u154_21
  3619     0141  2943               	goto	u154_20
  3620     0142                     u154_21:
  3621     0142  2957               	goto	i1l297
  3622     0143                     u154_20:
  3623     0143                     i1l1998:
  3624                           
  3625                           ;main.c: 366:         EG_state = EG_LOW;
  3626     0143  0140               	movlb	0	; select bank0
  3627     0144  01D0               	clrf	_EG_state
  3628     0145                     i1l2000:
  3629                           
  3630                           ;main.c: 367:         TMR1ON = 0;
  3631     0145  0144               	movlb	4	; select bank4
  3632     0146  100E               	bcf	14,0	;volatile
  3633                           
  3634                           ;main.c: 368:         TMR1 = 0;
  3635     0147  018C               	clrf	12	;volatile
  3636     0148  018D               	clrf	13	;volatile
  3637                           
  3638                           ;main.c: 369:         CCPR1 = 0;
  3639     0149  0146               	movlb	6	; select bank6
  3640     014A  018C               	clrf	12	;volatile
  3641     014B  018D               	clrf	13	;volatile
  3642                           
  3643                           ;main.c: 370:         CCPR2 = 0;
  3644     014C  0190               	clrf	16	;volatile
  3645     014D  0191               	clrf	17	;volatile
  3646     014E                     i1l2002:
  3647                           
  3648                           ;main.c: 371:         TMR1IF = 0;
  3649     014E  014E               	movlb	14	; select bank14
  3650     014F  128D               	bcf	13,5	;volatile
  3651     0150                     i1l2004:
  3652                           
  3653                           ;main.c: 372:         LATA0 = 0;
  3654     0150  0140               	movlb	0	; select bank0
  3655     0151  1018               	bcf	24,0	;volatile
  3656     0152                     i1l2006:
  3657                           
  3658                           ;main.c: 373:         ccp2_disable();
  3659     0152  318F  270C  3180   	fcall	i1_ccp2_disable
  3660     0155                     i1l2008:
  3661                           
  3662                           ;main.c: 374:         LATC1 = 0;
  3663     0155  0140               	movlb	0	; select bank0
  3664     0156  109A               	bcf	26,1	;volatile
  3665     0157                     i1l297:	
  3666                           ;main.c: 375:     }
  3667                           
  3668     0157  0064               	clrwdt	;# 
  3669     0158                     i1l298:
  3670     0158  107E               	bcf	int$flags,0	;clear compiler interrupt flag (level 1)
  3671     0159  0009               	retfie
  3672     015A                     __end_of_InterruptManager:
  3673                           
  3674                           	psect	text13
  3675     0190                     __ptext13:	
  3676 ;; *************** function i1_calc_map *****************
  3677 ;; Defined at:
  3678 ;;		line 208 in file "main.c"
  3679 ;; Parameters:    Size  Location     Type
  3680 ;;		None
  3681 ;; Auto vars:     Size  Location     Type
  3682 ;;  temp1           3   18[BANK0 ] unsigned um
  3683 ;;  temp            3   15[BANK0 ] unsigned um
  3684 ;;  p4y             2   29[BANK0 ] unsigned short 
  3685 ;;  p3y             2   27[BANK0 ] unsigned short 
  3686 ;;  p2y             2   25[BANK0 ] unsigned short 
  3687 ;;  p1y             2   23[BANK0 ] unsigned short 
  3688 ;;  a               1   35[BANK0 ] unsigned char 
  3689 ;;  p4x             1   34[BANK0 ] unsigned char 
  3690 ;;  p3x             1   33[BANK0 ] unsigned char 
  3691 ;;  p2x             1   32[BANK0 ] unsigned char 
  3692 ;;  p1x             1   31[BANK0 ] unsigned char 
  3693 ;;  coeff_p3_p4     1   22[BANK0 ] unsigned char 
  3694 ;;  coeff_p1_p2     1   21[BANK0 ] unsigned char 
  3695 ;; Return value:  Size  Location     Type
  3696 ;;                  1    wreg      void 
  3697 ;; Registers used:
  3698 ;;		wreg, fsr0l, fsr0h, fsr1l, fsr1h, status,2, status,0, pclath, cstack
  3699 ;; Tracked objects:
  3700 ;;		On entry : 0/0
  3701 ;;		On exit  : 0/0
  3702 ;;		Unchanged: 0/0
  3703 ;; Data sizes:     COMMON   BANK0   BANK1   BANK2   BANK3   BANK4   BANK5   BANK6   BANK7   BANK8   BANK9  BANK10  BANK1
      +1  BANK12
  3704 ;;      Params:         0       0       0       0       0       0       0       0       0       0       0       0       
      +0       0
  3705 ;;      Locals:         0      21       0       0       0       0       0       0       0       0       0       0       
      +0       0
  3706 ;;      Temps:          0      12       0       0       0       0       0       0       0       0       0       0       
      +0       0
  3707 ;;      Totals:         0      33       0       0       0       0       0       0       0       0       0       0       
      +0       0
  3708 ;;Total ram usage:       33 bytes
  3709 ;; Hardware stack levels used: 1
  3710 ;; Hardware stack levels required when called: 1
  3711 ;; This function calls:
  3712 ;;		i1___lwdiv
  3713 ;;		i1___tmul
  3714 ;;		i1___wmul
  3715 ;; This function is called by:
  3716 ;;		_InterruptManager
  3717 ;; This function uses a non-reentrant model
  3718 ;;
  3719                           
  3720     0190                     i1_calc_map:	
  3721                           ;psect for function i1_calc_map
  3722                           
  3723     0190                     i1l1786:	
  3724                           ;incstack = 0
  3725                           ; Regs used in i1_calc_map: [wreg-fsr1h+status,2+status,0+pclath+cstack]
  3726                           
  3727                           
  3728                           ;main.c: 209:     uint8_t p1x, p2x, p3x, p4x;;main.c: 210:     uint16_t p1y, p2y, p3y, p
      +                          4y;;main.c: 211:     uint8_t coeff_p1_p2, coeff_p3_p4;;main.c: 212:     uint8_t a;;main.
      +                          c: 213:     uint24_t temp;;main.c: 214:     uint24_t temp1;;main.c: 216:     p1x = adv_s
      +                          tart_rpm_table[sw1_pos];
  3729     0190  0141               	movlb	1	; select bank1
  3730     0191  0853               	movf	_sw1_pos^(0+128),w
  3731     0192  3E1D               	addlw	low (_adv_start_rpm_table| (0+32768))
  3732     0193  0084               	movwf	4
  3733     0194  3090               	movlw	high (_adv_start_rpm_table| (0+32768))
  3734     0195  1803               	skipnc
  3735     0196  3E01               	addlw	1
  3736     0197  0085               	movwf	5
  3737     0198  0800               	movf	0,w	;code access
  3738     0199  0140               	movlb	0	; select bank0
  3739     019A  00BF               	movwf	i1calc_map@p1x
  3740     019B                     i1l1788:
  3741                           
  3742                           ;main.c: 217:     p2x = adv_start_rpm_table[sw1_pos] + max_adv_grad_table[sw3_pos];
  3743     019B  0141               	movlb	1	; select bank1
  3744     019C  0851               	movf	_sw3_pos^(0+128),w
  3745     019D  3E19               	addlw	low (_max_adv_grad_table| (0+32768))
  3746     019E  0084               	movwf	4
  3747     019F  3090               	movlw	high (_max_adv_grad_table| (0+32768))
  3748     01A0  1803               	skipnc
  3749     01A1  3E01               	addlw	1
  3750     01A2  0085               	movwf	5
  3751     01A3  0800               	movf	0,w	;code access
  3752     01A4  0140               	movlb	0	; select bank0
  3753     01A5  00A3               	movwf	??i1_calc_map
  3754     01A6  0141               	movlb	1	; select bank1
  3755     01A7  0853               	movf	_sw1_pos^(0+128),w
  3756     01A8  3E1D               	addlw	low (_adv_start_rpm_table| (0+32768))
  3757     01A9  0084               	movwf	4
  3758     01AA  3090               	movlw	high (_adv_start_rpm_table| (0+32768))
  3759     01AB  1803               	skipnc
  3760     01AC  3E01               	addlw	1
  3761     01AD  0085               	movwf	5
  3762     01AE  0800               	movf	0,w	;code access
  3763     01AF  0140               	movlb	0	; select bank0
  3764     01B0  0723               	addwf	??i1_calc_map,w
  3765     01B1  00C0               	movwf	i1calc_map@p2x
  3766     01B2                     i1l1790:
  3767                           
  3768                           ;main.c: 218:     p3x = (55);
  3769     01B2  3037               	movlw	55
  3770     01B3  00C1               	movwf	i1calc_map@p3x
  3771     01B4                     i1l1792:
  3772                           
  3773                           ;main.c: 219:     p4x = (80);
  3774     01B4  3050               	movlw	80
  3775     01B5  00C2               	movwf	i1calc_map@p4x
  3776     01B6                     i1l1794:
  3777                           
  3778                           ;main.c: 220:     p1y = (500);
  3779     01B6  30F4               	movlw	244
  3780     01B7  00B7               	movwf	i1calc_map@p1y
  3781     01B8  3001               	movlw	1
  3782     01B9  00B8               	movwf	i1calc_map@p1y+1
  3783     01BA                     i1l1796:
  3784                           
  3785                           ;main.c: 221:     p2y = max_adv_table[sw2_pos];
  3786     01BA  0141               	movlb	1	; select bank1
  3787     01BB  0852               	movf	_sw2_pos^(0+128),w
  3788     01BC  0140               	movlb	0	; select bank0
  3789     01BD  00A3               	movwf	??i1_calc_map
  3790     01BE  01A4               	clrf	??i1_calc_map+1
  3791     01BF  35A3               	lslf	??i1_calc_map,f
  3792     01C0  0DA4               	rlf	??i1_calc_map+1,f
  3793     01C1  3011               	movlw	low _max_adv_table
  3794     01C2  0723               	addwf	??i1_calc_map,w
  3795     01C3  0084               	movwf	4
  3796     01C4  3010               	movlw	high _max_adv_table
  3797     01C5  3D24               	addwfc	??i1_calc_map+1,w
  3798     01C6  3880               	iorlw	128
  3799     01C7  0085               	movwf	5
  3800     01C8  3F00               	moviw [0]fsr0
  3801     01C9  00B9               	movwf	i1calc_map@p2y
  3802     01CA  3F01               	moviw [1]fsr0
  3803     01CB  00BA               	movwf	i1calc_map@p2y+1
  3804     01CC                     i1l1798:
  3805                           
  3806                           ;main.c: 222:     p3y = p2y;
  3807     01CC  083A               	movf	i1calc_map@p2y+1,w
  3808     01CD  00BC               	movwf	i1calc_map@p3y+1
  3809     01CE  0839               	movf	i1calc_map@p2y,w
  3810     01CF  00BB               	movwf	i1calc_map@p3y
  3811     01D0                     i1l1800:
  3812                           
  3813                           ;main.c: 223:     p4y = min_ret_table[sw4_pos];
  3814     01D0  0141               	movlb	1	; select bank1
  3815     01D1  0850               	movf	_sw4_pos^(0+128),w
  3816     01D2  0140               	movlb	0	; select bank0
  3817     01D3  00A3               	movwf	??i1_calc_map
  3818     01D4  01A4               	clrf	??i1_calc_map+1
  3819     01D5  35A3               	lslf	??i1_calc_map,f
  3820     01D6  0DA4               	rlf	??i1_calc_map+1,f
  3821     01D7  3009               	movlw	low _min_ret_table
  3822     01D8  0723               	addwf	??i1_calc_map,w
  3823     01D9  0084               	movwf	4
  3824     01DA  3010               	movlw	high _min_ret_table
  3825     01DB  3D24               	addwfc	??i1_calc_map+1,w
  3826     01DC  3880               	iorlw	128
  3827     01DD  0085               	movwf	5
  3828     01DE  3F00               	moviw [0]fsr0
  3829     01DF  00BD               	movwf	i1calc_map@p4y
  3830     01E0  3F01               	moviw [1]fsr0
  3831     01E1  00BE               	movwf	i1calc_map@p4y+1
  3832     01E2                     i1l1802:
  3833                           
  3834                           ;main.c: 224:     coeff_p1_p2 = (uint8_t) ((p2y - p1y) / (p2x - p1x));
  3835     01E2  083F               	movf	i1calc_map@p1x,w
  3836     01E3  0240               	subwf	i1calc_map@p2x,w
  3837     01E4  00F0               	movwf	i1___lwdiv@divisor
  3838     01E5  01F1               	clrf	i1___lwdiv@divisor+1
  3839     01E6  1C03               	skipc
  3840     01E7  03F1               	decf	i1___lwdiv@divisor+1,f
  3841     01E8  0839               	movf	i1calc_map@p2y,w
  3842     01E9  3E0C               	addlw	12
  3843     01EA  00F2               	movwf	i1___lwdiv@dividend
  3844     01EB  30FE               	movlw	254
  3845     01EC  3D3A               	addwfc	i1calc_map@p2y+1,w
  3846     01ED  00F3               	movwf	i1___lwdiv@dividend+1
  3847     01EE  3187  2798  3181   	fcall	i1___lwdiv
  3848     01F1  0870               	movf	?i1___lwdiv,w
  3849     01F2  0140               	movlb	0	; select bank0
  3850     01F3  00B5               	movwf	i1calc_map@coeff_p1_p2
  3851     01F4                     i1l1804:
  3852                           
  3853                           ;main.c: 225:     coeff_p3_p4 = (uint8_t) ((p3y - p4y) / (p4x - p3x));
  3854     01F4  3019               	movlw	25
  3855     01F5  00F0               	movwf	i1___lwdiv@divisor
  3856     01F6  3000               	movlw	0
  3857     01F7  00F1               	movwf	i1___lwdiv@divisor+1
  3858     01F8  083D               	movf	i1calc_map@p4y,w
  3859     01F9  023B               	subwf	i1calc_map@p3y,w
  3860     01FA  00F2               	movwf	i1___lwdiv@dividend
  3861     01FB  083E               	movf	i1calc_map@p4y+1,w
  3862     01FC  3B3C               	subwfb	i1calc_map@p3y+1,w
  3863     01FD  00F3               	movwf	i1___lwdiv@dividend+1
  3864     01FE  3187  2798  3181   	fcall	i1___lwdiv
  3865     0201  0870               	movf	?i1___lwdiv,w
  3866     0202  0140               	movlb	0	; select bank0
  3867     0203  00B6               	movwf	i1calc_map@coeff_p3_p4
  3868     0204                     i1l1806:
  3869                           
  3870                           ;main.c: 228:     for (a = 15; a <= p1x; a++) {
  3871     0204  300F               	movlw	15
  3872     0205  00C3               	movwf	i1calc_map@a
  3873     0206  2A1E               	goto	i1l1812
  3874     0207                     i1l1808:
  3875                           
  3876                           ;main.c: 229:         IG_table[a] = p1y;
  3877     0207  0843               	movf	i1calc_map@a,w
  3878     0208  00A3               	movwf	??i1_calc_map
  3879     0209  01A4               	clrf	??i1_calc_map+1
  3880     020A  35A3               	lslf	??i1_calc_map,f
  3881     020B  0DA4               	rlf	??i1_calc_map+1,f
  3882     020C  30EA               	movlw	234
  3883     020D  00A5               	movwf	??i1_calc_map+2
  3884     020E  3022               	movlw	34
  3885     020F  00A6               	movwf	??i1_calc_map+3
  3886     0210  0823               	movf	??i1_calc_map,w
  3887     0211  0725               	addwf	??i1_calc_map+2,w
  3888     0212  0086               	movwf	6
  3889     0213  0824               	movf	??i1_calc_map+1,w
  3890     0214  3D26               	addwfc	??i1_calc_map+3,w
  3891     0215  0087               	movwf	7
  3892     0216  0837               	movf	i1calc_map@p1y,w
  3893     0217  3FC0               	movwi [0]fsr1
  3894     0218  0838               	movf	i1calc_map@p1y+1,w
  3895     0219  3FC1               	movwi [1]fsr1
  3896     021A                     i1l1810:
  3897                           
  3898                           ;main.c: 230:     }
  3899     021A  3001               	movlw	1
  3900     021B  00A3               	movwf	??i1_calc_map
  3901     021C  0823               	movf	??i1_calc_map,w
  3902     021D  07C3               	addwf	i1calc_map@a,f
  3903     021E                     i1l1812:
  3904     021E  0843               	movf	i1calc_map@a,w
  3905     021F  023F               	subwf	i1calc_map@p1x,w
  3906     0220  1803               	skipnc
  3907     0221  2A23               	goto	u122_21
  3908     0222  2A24               	goto	u122_20
  3909     0223                     u122_21:
  3910     0223  2A07               	goto	i1l1808
  3911     0224                     u122_20:
  3912     0224                     i1l1814:
  3913                           
  3914                           ;main.c: 231:     for (a = p1x + 1; a <= p2x; a++) {
  3915     0224  083F               	movf	i1calc_map@p1x,w
  3916     0225  3E01               	addlw	1
  3917     0226  00C3               	movwf	i1calc_map@a
  3918     0227  2A59               	goto	i1l1820
  3919     0228                     i1l1816:
  3920                           
  3921                           ;main.c: 232:         IG_table[a] = coeff_p1_p2 + IG_table[a - 1];
  3922     0228  0843               	movf	i1calc_map@a,w
  3923     0229  00A3               	movwf	??i1_calc_map
  3924     022A  01A4               	clrf	??i1_calc_map+1
  3925     022B  35A3               	lslf	??i1_calc_map,f
  3926     022C  0DA4               	rlf	??i1_calc_map+1,f
  3927     022D  30E8               	movlw	232
  3928     022E  00A5               	movwf	??i1_calc_map+2
  3929     022F  3022               	movlw	34
  3930     0230  00A6               	movwf	??i1_calc_map+3
  3931     0231  0823               	movf	??i1_calc_map,w
  3932     0232  0725               	addwf	??i1_calc_map+2,w
  3933     0233  0086               	movwf	6
  3934     0234  0824               	movf	??i1_calc_map+1,w
  3935     0235  3D26               	addwfc	??i1_calc_map+3,w
  3936     0236  0087               	movwf	7
  3937     0237  3F40               	moviw [0]fsr1
  3938     0238  00A7               	movwf	??i1_calc_map+4
  3939     0239  3F41               	moviw [1]fsr1
  3940     023A  00A8               	movwf	??i1_calc_map+5
  3941     023B  0835               	movf	i1calc_map@coeff_p1_p2,w
  3942     023C  0727               	addwf	??i1_calc_map+4,w
  3943     023D  00A9               	movwf	??i1_calc_map+6
  3944     023E  0828               	movf	??i1_calc_map+5,w
  3945     023F  1803               	skipnc
  3946     0240  0A28               	incf	??i1_calc_map+5,w
  3947     0241  00AA               	movwf	??i1_calc_map+7
  3948     0242  0843               	movf	i1calc_map@a,w
  3949     0243  00AB               	movwf	??i1_calc_map+8
  3950     0244  01AC               	clrf	??i1_calc_map+9
  3951     0245  35AB               	lslf	??i1_calc_map+8,f
  3952     0246  0DAC               	rlf	??i1_calc_map+9,f
  3953     0247  30EA               	movlw	234
  3954     0248  00AD               	movwf	??i1_calc_map+10
  3955     0249  3022               	movlw	34
  3956     024A  00AE               	movwf	??i1_calc_map+11
  3957     024B  082B               	movf	??i1_calc_map+8,w
  3958     024C  072D               	addwf	??i1_calc_map+10,w
  3959     024D  0086               	movwf	6
  3960     024E  082C               	movf	??i1_calc_map+9,w
  3961     024F  3D2E               	addwfc	??i1_calc_map+11,w
  3962     0250  0087               	movwf	7
  3963     0251  0829               	movf	??i1_calc_map+6,w
  3964     0252  3FC0               	movwi [0]fsr1
  3965     0253  082A               	movf	??i1_calc_map+7,w
  3966     0254  3FC1               	movwi [1]fsr1
  3967     0255                     i1l1818:
  3968                           
  3969                           ;main.c: 233:     }
  3970     0255  3001               	movlw	1
  3971     0256  00A3               	movwf	??i1_calc_map
  3972     0257  0823               	movf	??i1_calc_map,w
  3973     0258  07C3               	addwf	i1calc_map@a,f
  3974     0259                     i1l1820:
  3975     0259  0843               	movf	i1calc_map@a,w
  3976     025A  0240               	subwf	i1calc_map@p2x,w
  3977     025B  1803               	skipnc
  3978     025C  2A5E               	goto	u123_21
  3979     025D  2A5F               	goto	u123_20
  3980     025E                     u123_21:
  3981     025E  2A28               	goto	i1l1816
  3982     025F                     u123_20:
  3983     025F                     i1l1822:
  3984                           
  3985                           ;main.c: 234:     for (a = p2x + 1; a <= p3x; a++) {
  3986     025F  0840               	movf	i1calc_map@p2x,w
  3987     0260  3E01               	addlw	1
  3988     0261  00C3               	movwf	i1calc_map@a
  3989     0262  2A7A               	goto	i1l1828
  3990     0263                     i1l1824:
  3991                           
  3992                           ;main.c: 235:         IG_table[a] = p3y;
  3993     0263  0843               	movf	i1calc_map@a,w
  3994     0264  00A3               	movwf	??i1_calc_map
  3995     0265  01A4               	clrf	??i1_calc_map+1
  3996     0266  35A3               	lslf	??i1_calc_map,f
  3997     0267  0DA4               	rlf	??i1_calc_map+1,f
  3998     0268  30EA               	movlw	234
  3999     0269  00A5               	movwf	??i1_calc_map+2
  4000     026A  3022               	movlw	34
  4001     026B  00A6               	movwf	??i1_calc_map+3
  4002     026C  0823               	movf	??i1_calc_map,w
  4003     026D  0725               	addwf	??i1_calc_map+2,w
  4004     026E  0086               	movwf	6
  4005     026F  0824               	movf	??i1_calc_map+1,w
  4006     0270  3D26               	addwfc	??i1_calc_map+3,w
  4007     0271  0087               	movwf	7
  4008     0272  083B               	movf	i1calc_map@p3y,w
  4009     0273  3FC0               	movwi [0]fsr1
  4010     0274  083C               	movf	i1calc_map@p3y+1,w
  4011     0275  3FC1               	movwi [1]fsr1
  4012     0276                     i1l1826:
  4013                           
  4014                           ;main.c: 236:     }
  4015     0276  3001               	movlw	1
  4016     0277  00A3               	movwf	??i1_calc_map
  4017     0278  0823               	movf	??i1_calc_map,w
  4018     0279  07C3               	addwf	i1calc_map@a,f
  4019     027A                     i1l1828:
  4020     027A  0843               	movf	i1calc_map@a,w
  4021     027B  0241               	subwf	i1calc_map@p3x,w
  4022     027C  1803               	skipnc
  4023     027D  2A7F               	goto	u124_21
  4024     027E  2A80               	goto	u124_20
  4025     027F                     u124_21:
  4026     027F  2A63               	goto	i1l1824
  4027     0280                     u124_20:
  4028     0280                     i1l1830:
  4029                           
  4030                           ;main.c: 237:     for (a = p3x + 1; a <= p4x; a++) {
  4031     0280  0841               	movf	i1calc_map@p3x,w
  4032     0281  3E01               	addlw	1
  4033     0282  00C3               	movwf	i1calc_map@a
  4034     0283  2AB5               	goto	i1l1836
  4035     0284                     i1l1832:
  4036                           
  4037                           ;main.c: 238:         IG_table[a] = IG_table[a - 1] - coeff_p3_p4;
  4038     0284  0843               	movf	i1calc_map@a,w
  4039     0285  00A3               	movwf	??i1_calc_map
  4040     0286  01A4               	clrf	??i1_calc_map+1
  4041     0287  35A3               	lslf	??i1_calc_map,f
  4042     0288  0DA4               	rlf	??i1_calc_map+1,f
  4043     0289  30E8               	movlw	232
  4044     028A  00A5               	movwf	??i1_calc_map+2
  4045     028B  3022               	movlw	34
  4046     028C  00A6               	movwf	??i1_calc_map+3
  4047     028D  0823               	movf	??i1_calc_map,w
  4048     028E  0725               	addwf	??i1_calc_map+2,w
  4049     028F  0086               	movwf	6
  4050     0290  0824               	movf	??i1_calc_map+1,w
  4051     0291  3D26               	addwfc	??i1_calc_map+3,w
  4052     0292  0087               	movwf	7
  4053     0293  3F40               	moviw [0]fsr1
  4054     0294  00A7               	movwf	??i1_calc_map+4
  4055     0295  3F41               	moviw [1]fsr1
  4056     0296  00A8               	movwf	??i1_calc_map+5
  4057     0297  0828               	movf	??i1_calc_map+5,w
  4058     0298  00AA               	movwf	??i1_calc_map+7
  4059     0299  0836               	movf	i1calc_map@coeff_p3_p4,w
  4060     029A  0227               	subwf	??i1_calc_map+4,w
  4061     029B  00A9               	movwf	??i1_calc_map+6
  4062     029C  1C03               	skipc
  4063     029D  03AA               	decf	??i1_calc_map+7,f
  4064     029E  0843               	movf	i1calc_map@a,w
  4065     029F  00AB               	movwf	??i1_calc_map+8
  4066     02A0  01AC               	clrf	??i1_calc_map+9
  4067     02A1  35AB               	lslf	??i1_calc_map+8,f
  4068     02A2  0DAC               	rlf	??i1_calc_map+9,f
  4069     02A3  30EA               	movlw	234
  4070     02A4  00AD               	movwf	??i1_calc_map+10
  4071     02A5  3022               	movlw	34
  4072     02A6  00AE               	movwf	??i1_calc_map+11
  4073     02A7  082B               	movf	??i1_calc_map+8,w
  4074     02A8  072D               	addwf	??i1_calc_map+10,w
  4075     02A9  0086               	movwf	6
  4076     02AA  082C               	movf	??i1_calc_map+9,w
  4077     02AB  3D2E               	addwfc	??i1_calc_map+11,w
  4078     02AC  0087               	movwf	7
  4079     02AD  0829               	movf	??i1_calc_map+6,w
  4080     02AE  3FC0               	movwi [0]fsr1
  4081     02AF  082A               	movf	??i1_calc_map+7,w
  4082     02B0  3FC1               	movwi [1]fsr1
  4083     02B1                     i1l1834:
  4084                           
  4085                           ;main.c: 239:     }
  4086     02B1  3001               	movlw	1
  4087     02B2  00A3               	movwf	??i1_calc_map
  4088     02B3  0823               	movf	??i1_calc_map,w
  4089     02B4  07C3               	addwf	i1calc_map@a,f
  4090     02B5                     i1l1836:
  4091     02B5  0843               	movf	i1calc_map@a,w
  4092     02B6  0242               	subwf	i1calc_map@p4x,w
  4093     02B7  1803               	skipnc
  4094     02B8  2ABA               	goto	u125_21
  4095     02B9  2ABB               	goto	u125_20
  4096     02BA                     u125_21:
  4097     02BA  2A84               	goto	i1l1832
  4098     02BB                     u125_20:
  4099     02BB                     i1l1838:
  4100                           
  4101                           ;main.c: 240:     for (a = p4x + 1; a <= 130; a++) {
  4102     02BB  0842               	movf	i1calc_map@p4x,w
  4103     02BC  3E01               	addlw	1
  4104     02BD  00C3               	movwf	i1calc_map@a
  4105     02BE                     i1l1840:
  4106     02BE  3083               	movlw	131
  4107     02BF  0243               	subwf	i1calc_map@a,w
  4108     02C0  1C03               	skipc
  4109     02C1  2AC3               	goto	u126_21
  4110     02C2  2AC4               	goto	u126_20
  4111     02C3                     u126_21:
  4112     02C3  2AC5               	goto	i1l1844
  4113     02C4                     u126_20:
  4114     02C4  2ADD               	goto	i1l1850
  4115     02C5                     i1l1844:
  4116                           
  4117                           ;main.c: 241:         IG_table[a] = p4y;
  4118     02C5  0843               	movf	i1calc_map@a,w
  4119     02C6  00A3               	movwf	??i1_calc_map
  4120     02C7  01A4               	clrf	??i1_calc_map+1
  4121     02C8  35A3               	lslf	??i1_calc_map,f
  4122     02C9  0DA4               	rlf	??i1_calc_map+1,f
  4123     02CA  30EA               	movlw	234
  4124     02CB  00A5               	movwf	??i1_calc_map+2
  4125     02CC  3022               	movlw	34
  4126     02CD  00A6               	movwf	??i1_calc_map+3
  4127     02CE  0823               	movf	??i1_calc_map,w
  4128     02CF  0725               	addwf	??i1_calc_map+2,w
  4129     02D0  0086               	movwf	6
  4130     02D1  0824               	movf	??i1_calc_map+1,w
  4131     02D2  3D26               	addwfc	??i1_calc_map+3,w
  4132     02D3  0087               	movwf	7
  4133     02D4  083D               	movf	i1calc_map@p4y,w
  4134     02D5  3FC0               	movwi [0]fsr1
  4135     02D6  083E               	movf	i1calc_map@p4y+1,w
  4136     02D7  3FC1               	movwi [1]fsr1
  4137     02D8                     i1l1846:
  4138                           
  4139                           ;main.c: 242:     }
  4140     02D8  3001               	movlw	1
  4141     02D9  00A3               	movwf	??i1_calc_map
  4142     02DA  0823               	movf	??i1_calc_map,w
  4143     02DB  07C3               	addwf	i1calc_map@a,f
  4144     02DC  2ABE               	goto	i1l1840
  4145     02DD                     i1l1850:
  4146                           
  4147                           ;main.c: 243:     for (a = 15; a <= 130; a++) {
  4148     02DD  300F               	movlw	15
  4149     02DE  00C3               	movwf	i1calc_map@a
  4150     02DF                     i1l1854:
  4151                           
  4152                           ;main.c: 244:         temp1 = (((3500) - IG_table[a]) >> 1);
  4153     02DF  0843               	movf	i1calc_map@a,w
  4154     02E0  00A3               	movwf	??i1_calc_map
  4155     02E1  01A4               	clrf	??i1_calc_map+1
  4156     02E2  35A3               	lslf	??i1_calc_map,f
  4157     02E3  0DA4               	rlf	??i1_calc_map+1,f
  4158     02E4  30EA               	movlw	234
  4159     02E5  00A5               	movwf	??i1_calc_map+2
  4160     02E6  3022               	movlw	34
  4161     02E7  00A6               	movwf	??i1_calc_map+3
  4162     02E8  0823               	movf	??i1_calc_map,w
  4163     02E9  0725               	addwf	??i1_calc_map+2,w
  4164     02EA  0086               	movwf	6
  4165     02EB  0824               	movf	??i1_calc_map+1,w
  4166     02EC  3D26               	addwfc	??i1_calc_map+3,w
  4167     02ED  0087               	movwf	7
  4168     02EE  30AC               	movlw	172
  4169     02EF  00A7               	movwf	??i1_calc_map+4
  4170     02F0  300D               	movlw	13
  4171     02F1  00A8               	movwf	??i1_calc_map+5
  4172     02F2  3F40               	moviw [0]fsr1
  4173     02F3  0227               	subwf	??i1_calc_map+4,w
  4174     02F4  00A9               	movwf	??i1_calc_map+6
  4175     02F5  3F41               	moviw [1]fsr1
  4176     02F6  3B28               	subwfb	??i1_calc_map+5,w
  4177     02F7  00AA               	movwf	??i1_calc_map+7
  4178     02F8  36AA               	lsrf	??i1_calc_map+7,f
  4179     02F9  0CA9               	rrf	??i1_calc_map+6,f
  4180     02FA  0829               	movf	??i1_calc_map+6,w
  4181     02FB  00B2               	movwf	i1calc_map@temp1
  4182     02FC  082A               	movf	??i1_calc_map+7,w
  4183     02FD  00B3               	movwf	i1calc_map@temp1+1
  4184     02FE  01B4               	clrf	i1calc_map@temp1+2
  4185     02FF                     i1l1856:
  4186                           
  4187                           ;main.c: 245:         temp = ((deg2time_coeff[a] * temp1) >> 10);
  4188     02FF  0843               	movf	i1calc_map@a,w
  4189     0300  00A3               	movwf	??i1_calc_map
  4190     0301  01A4               	clrf	??i1_calc_map+1
  4191     0302  0823               	movf	??i1_calc_map,w
  4192     0303  00F0               	movwf	i1___wmul@multiplier
  4193     0304  0824               	movf	??i1_calc_map+1,w
  4194     0305  00F1               	movwf	i1___wmul@multiplier+1
  4195     0306  3003               	movlw	3
  4196     0307  00F2               	movwf	i1___wmul@multiplicand
  4197     0308  3000               	movlw	0
  4198     0309  00F3               	movwf	i1___wmul@multiplicand+1
  4199     030A  318F  2794  3181   	fcall	i1___wmul
  4200     030D  3061               	movlw	97
  4201     030E  0140               	movlb	0	; select bank0
  4202     030F  00A5               	movwf	??i1_calc_map+2
  4203     0310  3021               	movlw	33
  4204     0311  00A6               	movwf	??i1_calc_map+3
  4205     0312  0870               	movf	?i1___wmul,w
  4206     0313  0725               	addwf	??i1_calc_map+2,w
  4207     0314  0086               	movwf	6
  4208     0315  0871               	movf	?i1___wmul+1,w
  4209     0316  3D26               	addwfc	??i1_calc_map+3,w
  4210     0317  0087               	movwf	7
  4211     0318  3F40               	moviw [0]fsr1
  4212     0319  00F6               	movwf	i1___tmul@multiplier
  4213     031A  3F41               	moviw [1]fsr1
  4214     031B  00F7               	movwf	i1___tmul@multiplier+1
  4215     031C  3F42               	moviw [2]fsr1
  4216     031D  00F8               	movwf	i1___tmul@multiplier+2
  4217     031E  0832               	movf	i1calc_map@temp1,w
  4218     031F  00F9               	movwf	i1___tmul@multiplicand
  4219     0320  0833               	movf	i1calc_map@temp1+1,w
  4220     0321  00FA               	movwf	i1___tmul@multiplicand+1
  4221     0322  0834               	movf	i1calc_map@temp1+2,w
  4222     0323  00FB               	movwf	i1___tmul@multiplicand+2
  4223     0324  318F  27D3  3181   	fcall	i1___tmul
  4224     0327  0876               	movf	?i1___tmul,w
  4225     0328  0140               	movlb	0	; select bank0
  4226     0329  00A7               	movwf	??i1_calc_map+4
  4227     032A  0877               	movf	?i1___tmul+1,w
  4228     032B  00A8               	movwf	??i1_calc_map+5
  4229     032C  0878               	movf	?i1___tmul+2,w
  4230     032D  00A9               	movwf	??i1_calc_map+6
  4231     032E  300A               	movlw	10
  4232     032F                     u127_25:
  4233     032F  36A9               	lsrf	??i1_calc_map+6,f
  4234     0330  0CA8               	rrf	??i1_calc_map+5,f
  4235     0331  0CA7               	rrf	??i1_calc_map+4,f
  4236     0332                     u127_20:
  4237     0332  0B89               	decfsz	9,f
  4238     0333  2B2F               	goto	u127_25
  4239     0334  0827               	movf	??i1_calc_map+4,w
  4240     0335  00AF               	movwf	i1calc_map@temp
  4241     0336  0828               	movf	??i1_calc_map+5,w
  4242     0337  00B0               	movwf	i1calc_map@temp+1
  4243     0338  0829               	movf	??i1_calc_map+6,w
  4244     0339  00B1               	movwf	i1calc_map@temp+2
  4245     033A                     i1l1858:
  4246                           
  4247                           ;main.c: 246:         IG_table[a] = temp;
  4248     033A  0843               	movf	i1calc_map@a,w
  4249     033B  00A3               	movwf	??i1_calc_map
  4250     033C  01A4               	clrf	??i1_calc_map+1
  4251     033D  35A3               	lslf	??i1_calc_map,f
  4252     033E  0DA4               	rlf	??i1_calc_map+1,f
  4253     033F  30EA               	movlw	234
  4254     0340  00A5               	movwf	??i1_calc_map+2
  4255     0341  3022               	movlw	34
  4256     0342  00A6               	movwf	??i1_calc_map+3
  4257     0343  0823               	movf	??i1_calc_map,w
  4258     0344  0725               	addwf	??i1_calc_map+2,w
  4259     0345  0086               	movwf	6
  4260     0346  0824               	movf	??i1_calc_map+1,w
  4261     0347  3D26               	addwfc	??i1_calc_map+3,w
  4262     0348  0087               	movwf	7
  4263     0349  082F               	movf	i1calc_map@temp,w
  4264     034A  3FC0               	movwi [0]fsr1
  4265     034B  0830               	movf	i1calc_map@temp+1,w
  4266     034C  3FC1               	movwi [1]fsr1
  4267     034D                     i1l1860:
  4268                           
  4269                           ;main.c: 247:     }
  4270     034D  3001               	movlw	1
  4271     034E  00A3               	movwf	??i1_calc_map
  4272     034F  0823               	movf	??i1_calc_map,w
  4273     0350  07C3               	addwf	i1calc_map@a,f
  4274     0351                     i1l1862:
  4275     0351  3083               	movlw	131
  4276     0352  0243               	subwf	i1calc_map@a,w
  4277     0353  1C03               	skipc
  4278     0354  2B56               	goto	u128_21
  4279     0355  2B57               	goto	u128_20
  4280     0356                     u128_21:
  4281     0356  2ADF               	goto	i1l1854
  4282     0357                     u128_20:
  4283     0357                     i1l251:
  4284     0357  0008               	return
  4285     0358                     __end_ofi1_calc_map:
  4286                           
  4287                           	psect	text14
  4288     0F94                     __ptext14:	
  4289 ;; *************** function i1___wmul *****************
  4290 ;; Defined at:
  4291 ;;		line 15 in file "C:\Program Files\Microchip\xc8\v2.45\pic\sources\c99\common\Umul16.c"
  4292 ;; Parameters:    Size  Location     Type
  4293 ;;  multiplier      2    0[COMMON] unsigned int 
  4294 ;;  multiplicand    2    2[COMMON] unsigned int 
  4295 ;; Auto vars:     Size  Location     Type
  4296 ;;  product         2    4[COMMON] unsigned int 
  4297 ;; Return value:  Size  Location     Type
  4298 ;;                  2    0[COMMON] unsigned int 
  4299 ;; Registers used:
  4300 ;;		wreg, status,2, status,0
  4301 ;; Tracked objects:
  4302 ;;		On entry : 0/0
  4303 ;;		On exit  : 0/0
  4304 ;;		Unchanged: 0/0
  4305 ;; Data sizes:     COMMON   BANK0   BANK1   BANK2   BANK3   BANK4   BANK5   BANK6   BANK7   BANK8   BANK9  BANK10  BANK1
      +1  BANK12
  4306 ;;      Params:         4       0       0       0       0       0       0       0       0       0       0       0       
      +0       0
  4307 ;;      Locals:         2       0       0       0       0       0       0       0       0       0       0       0       
      +0       0
  4308 ;;      Temps:          0       0       0       0       0       0       0       0       0       0       0       0       
      +0       0
  4309 ;;      Totals:         6       0       0       0       0       0       0       0       0       0       0       0       
      +0       0
  4310 ;;Total ram usage:        6 bytes
  4311 ;; Hardware stack levels used: 1
  4312 ;; This function calls:
  4313 ;;		Nothing
  4314 ;; This function is called by:
  4315 ;;		i1_calc_map
  4316 ;; This function uses a non-reentrant model
  4317 ;;
  4318                           
  4319     0F94                     i1___wmul:	
  4320                           ;psect for function i1___wmul
  4321                           
  4322     0F94                     i1l1514:	
  4323                           ;incstack = 0
  4324                           ; Regs used in i1___wmul: [wreg+status,2+status,0]
  4325                           
  4326     0F94  01F4               	clrf	i1___wmul@product
  4327     0F95  01F5               	clrf	i1___wmul@product+1
  4328     0F96                     i1l1516:
  4329     0F96  1C70               	btfss	i1___wmul@multiplier,0
  4330     0F97  2F99               	goto	u96_21
  4331     0F98  2F9A               	goto	u96_20
  4332     0F99                     u96_21:
  4333     0F99  2F9E               	goto	i1l384
  4334     0F9A                     u96_20:
  4335     0F9A                     i1l1518:
  4336     0F9A  0872               	movf	i1___wmul@multiplicand,w
  4337     0F9B  07F4               	addwf	i1___wmul@product,f
  4338     0F9C  0873               	movf	i1___wmul@multiplicand+1,w
  4339     0F9D  3DF5               	addwfc	i1___wmul@product+1,f
  4340     0F9E                     i1l384:
  4341     0F9E  3001               	movlw	1
  4342     0F9F                     u97_25:
  4343     0F9F  35F2               	lslf	i1___wmul@multiplicand,f
  4344     0FA0  0DF3               	rlf	i1___wmul@multiplicand+1,f
  4345     0FA1  0B89               	decfsz	9,f
  4346     0FA2  2F9F               	goto	u97_25
  4347     0FA3                     i1l1520:
  4348     0FA3  3001               	movlw	1
  4349     0FA4                     u98_25:
  4350     0FA4  36F1               	lsrf	i1___wmul@multiplier+1,f
  4351     0FA5  0CF0               	rrf	i1___wmul@multiplier,f
  4352     0FA6  0B89               	decfsz	9,f
  4353     0FA7  2FA4               	goto	u98_25
  4354     0FA8                     i1l1522:
  4355     0FA8  0870               	movf	i1___wmul@multiplier,w
  4356     0FA9  0471               	iorwf	i1___wmul@multiplier+1,w
  4357     0FAA  1D03               	btfss	3,2
  4358     0FAB  2FAD               	goto	u99_21
  4359     0FAC  2FAE               	goto	u99_20
  4360     0FAD                     u99_21:
  4361     0FAD  2F96               	goto	i1l1516
  4362     0FAE                     u99_20:
  4363     0FAE                     i1l1524:
  4364     0FAE  0875               	movf	i1___wmul@product+1,w
  4365     0FAF  00F1               	movwf	?i1___wmul+1
  4366     0FB0  0874               	movf	i1___wmul@product,w
  4367     0FB1  00F0               	movwf	?i1___wmul
  4368     0FB2                     i1l386:
  4369     0FB2  0008               	return
  4370     0FB3                     __end_ofi1___wmul:
  4371                           
  4372                           	psect	text15
  4373     0FD3                     __ptext15:	
  4374 ;; *************** function i1___tmul *****************
  4375 ;; Defined at:
  4376 ;;		line 15 in file "C:\Program Files\Microchip\xc8\v2.45\pic\sources\c99\common\Umul24.c"
  4377 ;; Parameters:    Size  Location     Type
  4378 ;;  multiplier      3    6[COMMON] unsigned um
  4379 ;;  multiplicand    3    9[COMMON] unsigned um
  4380 ;; Auto vars:     Size  Location     Type
  4381 ;;  product         3    0[BANK0 ] unsigned um
  4382 ;; Return value:  Size  Location     Type
  4383 ;;                  3    6[COMMON] unsigned um
  4384 ;; Registers used:
  4385 ;;		wreg, status,2, status,0
  4386 ;; Tracked objects:
  4387 ;;		On entry : 0/0
  4388 ;;		On exit  : 0/0
  4389 ;;		Unchanged: 0/0
  4390 ;; Data sizes:     COMMON   BANK0   BANK1   BANK2   BANK3   BANK4   BANK5   BANK6   BANK7   BANK8   BANK9  BANK10  BANK1
      +1  BANK12
  4391 ;;      Params:         6       0       0       0       0       0       0       0       0       0       0       0       
      +0       0
  4392 ;;      Locals:         0       3       0       0       0       0       0       0       0       0       0       0       
      +0       0
  4393 ;;      Temps:          0       0       0       0       0       0       0       0       0       0       0       0       
      +0       0
  4394 ;;      Totals:         6       3       0       0       0       0       0       0       0       0       0       0       
      +0       0
  4395 ;;Total ram usage:        9 bytes
  4396 ;; Hardware stack levels used: 1
  4397 ;; This function calls:
  4398 ;;		Nothing
  4399 ;; This function is called by:
  4400 ;;		i1_calc_map
  4401 ;; This function uses a non-reentrant model
  4402 ;;
  4403                           
  4404     0FD3                     i1___tmul:	
  4405                           ;psect for function i1___tmul
  4406                           
  4407     0FD3                     i1l1528:	
  4408                           ;incstack = 0
  4409                           ; Regs used in i1___tmul: [wreg+status,2+status,0]
  4410                           
  4411     0FD3  3000               	movlw	0
  4412     0FD4  0140               	movlb	0	; select bank0
  4413     0FD5  00A0               	movwf	i1___tmul@product
  4414     0FD6  3000               	movlw	0
  4415     0FD7  00A1               	movwf	i1___tmul@product+1
  4416     0FD8  3000               	movlw	0
  4417     0FD9  00A2               	movwf	i1___tmul@product+2
  4418     0FDA                     i1l1530:
  4419     0FDA  1C76               	btfss	i1___tmul@multiplier,0
  4420     0FDB  2FDD               	goto	u100_21
  4421     0FDC  2FDE               	goto	u100_20
  4422     0FDD                     u100_21:
  4423     0FDD  2FE5               	goto	i1l1534
  4424     0FDE                     u100_20:
  4425     0FDE                     i1l1532:
  4426     0FDE  0879               	movf	i1___tmul@multiplicand,w
  4427     0FDF  0140               	movlb	0	; select bank0
  4428     0FE0  07A0               	addwf	i1___tmul@product,f
  4429     0FE1  087A               	movf	i1___tmul@multiplicand+1,w
  4430     0FE2  3DA1               	addwfc	i1___tmul@product+1,f
  4431     0FE3  087B               	movf	i1___tmul@multiplicand+2,w
  4432     0FE4  3DA2               	addwfc	i1___tmul@product+2,f
  4433     0FE5                     i1l1534:
  4434     0FE5  3001               	movlw	1
  4435     0FE6                     u101_25:
  4436     0FE6  35F9               	lslf	i1___tmul@multiplicand,f
  4437     0FE7  0DFA               	rlf	i1___tmul@multiplicand+1,f
  4438     0FE8  0DFB               	rlf	i1___tmul@multiplicand+2,f
  4439     0FE9  0B89               	decfsz	9,f
  4440     0FEA  2FE6               	goto	u101_25
  4441     0FEB                     i1l1536:
  4442     0FEB  3001               	movlw	1
  4443     0FEC                     u102_25:
  4444     0FEC  36F8               	lsrf	i1___tmul@multiplier+2,f
  4445     0FED  0CF7               	rrf	i1___tmul@multiplier+1,f
  4446     0FEE  0CF6               	rrf	i1___tmul@multiplier,f
  4447     0FEF  0B89               	decfsz	9,f
  4448     0FF0  2FEC               	goto	u102_25
  4449     0FF1  0878               	movf	i1___tmul@multiplier+2,w
  4450     0FF2  0477               	iorwf	i1___tmul@multiplier+1,w
  4451     0FF3  0476               	iorwf	i1___tmul@multiplier,w
  4452     0FF4  1D03               	skipz
  4453     0FF5  2FF7               	goto	u103_21
  4454     0FF6  2FF8               	goto	u103_20
  4455     0FF7                     u103_21:
  4456     0FF7  2FDA               	goto	i1l1530
  4457     0FF8                     u103_20:
  4458     0FF8                     i1l1538:
  4459     0FF8  0140               	movlb	0	; select bank0
  4460     0FF9  0820               	movf	i1___tmul@product,w
  4461     0FFA  00F6               	movwf	?i1___tmul
  4462     0FFB  0821               	movf	i1___tmul@product+1,w
  4463     0FFC  00F7               	movwf	?i1___tmul+1
  4464     0FFD  0822               	movf	i1___tmul@product+2,w
  4465     0FFE  00F8               	movwf	?i1___tmul+2
  4466     0FFF                     i1l392:
  4467     0FFF  0008               	return
  4468     1000                     __end_ofi1___tmul:
  4469                           
  4470                           	psect	text16
  4471     0798                     __ptext16:	
  4472 ;; *************** function i1___lwdiv *****************
  4473 ;; Defined at:
  4474 ;;		line 5 in file "C:\Program Files\Microchip\xc8\v2.45\pic\sources\c99\common\lwdiv.c"
  4475 ;; Parameters:    Size  Location     Type
  4476 ;;  divisor         2    0[COMMON] unsigned int 
  4477 ;;  dividend        2    2[COMMON] unsigned int 
  4478 ;; Auto vars:     Size  Location     Type
  4479 ;;  quotient        2    5[COMMON] unsigned int 
  4480 ;;  counter         1    7[COMMON] unsigned char 
  4481 ;; Return value:  Size  Location     Type
  4482 ;;                  2    0[COMMON] unsigned int 
  4483 ;; Registers used:
  4484 ;;		wreg, status,2, status,0
  4485 ;; Tracked objects:
  4486 ;;		On entry : 0/0
  4487 ;;		On exit  : 0/0
  4488 ;;		Unchanged: 0/0
  4489 ;; Data sizes:     COMMON   BANK0   BANK1   BANK2   BANK3   BANK4   BANK5   BANK6   BANK7   BANK8   BANK9  BANK10  BANK1
      +1  BANK12
  4490 ;;      Params:         4       0       0       0       0       0       0       0       0       0       0       0       
      +0       0
  4491 ;;      Locals:         3       0       0       0       0       0       0       0       0       0       0       0       
      +0       0
  4492 ;;      Temps:          1       0       0       0       0       0       0       0       0       0       0       0       
      +0       0
  4493 ;;      Totals:         8       0       0       0       0       0       0       0       0       0       0       0       
      +0       0
  4494 ;;Total ram usage:        8 bytes
  4495 ;; Hardware stack levels used: 1
  4496 ;; This function calls:
  4497 ;;		Nothing
  4498 ;; This function is called by:
  4499 ;;		_InterruptManager
  4500 ;;		i1_calc_map
  4501 ;; This function uses a non-reentrant model
  4502 ;;
  4503                           
  4504     0798                     i1___lwdiv:	
  4505                           ;psect for function i1___lwdiv
  4506                           
  4507     0798                     i1l1542:	
  4508                           ;incstack = 0
  4509                           ; Regs used in i1___lwdiv: [wreg+status,2+status,0]
  4510                           
  4511     0798  01F5               	clrf	i1___lwdiv@quotient
  4512     0799  01F6               	clrf	i1___lwdiv@quotient+1
  4513     079A                     i1l1544:
  4514     079A  0870               	movf	i1___lwdiv@divisor,w
  4515     079B  0471               	iorwf	i1___lwdiv@divisor+1,w
  4516     079C  1903               	btfsc	3,2
  4517     079D  2F9F               	goto	u104_21
  4518     079E  2FA0               	goto	u104_20
  4519     079F                     u104_21:
  4520     079F  2FCF               	goto	i1l1564
  4521     07A0                     u104_20:
  4522     07A0                     i1l1546:
  4523     07A0  01F7               	clrf	i1___lwdiv@counter
  4524     07A1  0AF7               	incf	i1___lwdiv@counter,f
  4525     07A2  2FAC               	goto	i1l1552
  4526     07A3                     i1l1548:
  4527     07A3  3001               	movlw	1
  4528     07A4                     u105_25:
  4529     07A4  35F0               	lslf	i1___lwdiv@divisor,f
  4530     07A5  0DF1               	rlf	i1___lwdiv@divisor+1,f
  4531     07A6  0B89               	decfsz	9,f
  4532     07A7  2FA4               	goto	u105_25
  4533     07A8                     i1l1550:
  4534     07A8  3001               	movlw	1
  4535     07A9  00F4               	movwf	??i1___lwdiv
  4536     07AA  0874               	movf	??i1___lwdiv,w
  4537     07AB  07F7               	addwf	i1___lwdiv@counter,f
  4538     07AC                     i1l1552:
  4539     07AC  1FF1               	btfss	i1___lwdiv@divisor+1,7
  4540     07AD  2FAF               	goto	u106_21
  4541     07AE  2FB0               	goto	u106_20
  4542     07AF                     u106_21:
  4543     07AF  2FA3               	goto	i1l1548
  4544     07B0                     u106_20:
  4545     07B0                     i1l1554:
  4546     07B0  3001               	movlw	1
  4547     07B1                     u107_25:
  4548     07B1  35F5               	lslf	i1___lwdiv@quotient,f
  4549     07B2  0DF6               	rlf	i1___lwdiv@quotient+1,f
  4550     07B3  0B89               	decfsz	9,f
  4551     07B4  2FB1               	goto	u107_25
  4552     07B5  0871               	movf	i1___lwdiv@divisor+1,w
  4553     07B6  0273               	subwf	i1___lwdiv@dividend+1,w
  4554     07B7  1D03               	skipz
  4555     07B8  2FBB               	goto	u108_25
  4556     07B9  0870               	movf	i1___lwdiv@divisor,w
  4557     07BA  0272               	subwf	i1___lwdiv@dividend,w
  4558     07BB                     u108_25:
  4559     07BB  1C03               	skipc
  4560     07BC  2FBE               	goto	u108_21
  4561     07BD  2FBF               	goto	u108_20
  4562     07BE                     u108_21:
  4563     07BE  2FC4               	goto	i1l1560
  4564     07BF                     u108_20:
  4565     07BF                     i1l1556:
  4566     07BF  0870               	movf	i1___lwdiv@divisor,w
  4567     07C0  02F2               	subwf	i1___lwdiv@dividend,f
  4568     07C1  0871               	movf	i1___lwdiv@divisor+1,w
  4569     07C2  3BF3               	subwfb	i1___lwdiv@dividend+1,f
  4570     07C3                     i1l1558:
  4571     07C3  1475               	bsf	i1___lwdiv@quotient,0
  4572     07C4                     i1l1560:
  4573     07C4  3001               	movlw	1
  4574     07C5                     u109_25:
  4575     07C5  36F1               	lsrf	i1___lwdiv@divisor+1,f
  4576     07C6  0CF0               	rrf	i1___lwdiv@divisor,f
  4577     07C7  0B89               	decfsz	9,f
  4578     07C8  2FC5               	goto	u109_25
  4579     07C9                     i1l1562:
  4580     07C9  3001               	movlw	1
  4581     07CA  02F7               	subwf	i1___lwdiv@counter,f
  4582     07CB  1D03               	btfss	3,2
  4583     07CC  2FCE               	goto	u110_21
  4584     07CD  2FCF               	goto	u110_20
  4585     07CE                     u110_21:
  4586     07CE  2FB0               	goto	i1l1554
  4587     07CF                     u110_20:
  4588     07CF                     i1l1564:
  4589     07CF  0876               	movf	i1___lwdiv@quotient+1,w
  4590     07D0  00F1               	movwf	?i1___lwdiv+1
  4591     07D1  0875               	movf	i1___lwdiv@quotient,w
  4592     07D2  00F0               	movwf	?i1___lwdiv
  4593     07D3                     i1l664:
  4594     07D3  0008               	return
  4595     07D4                     __end_ofi1___lwdiv:
  4596                           
  4597                           	psect	text17
  4598     0F37                     __ptext17:	
  4599 ;; *************** function _ignition_disable *****************
  4600 ;; Defined at:
  4601 ;;		line 383 in file "main.c"
  4602 ;; Parameters:    Size  Location     Type
  4603 ;;		None
  4604 ;; Auto vars:     Size  Location     Type
  4605 ;;		None
  4606 ;; Return value:  Size  Location     Type
  4607 ;;                  1    wreg      void 
  4608 ;; Registers used:
  4609 ;;		wreg, status,2, status,0, pclath, cstack
  4610 ;; Tracked objects:
  4611 ;;		On entry : 0/0
  4612 ;;		On exit  : 0/0
  4613 ;;		Unchanged: 0/0
  4614 ;; Data sizes:     COMMON   BANK0   BANK1   BANK2   BANK3   BANK4   BANK5   BANK6   BANK7   BANK8   BANK9  BANK10  BANK1
      +1  BANK12
  4615 ;;      Params:         0       0       0       0       0       0       0       0       0       0       0       0       
      +0       0
  4616 ;;      Locals:         0       0       0       0       0       0       0       0       0       0       0       0       
      +0       0
  4617 ;;      Temps:          0       0       0       0       0       0       0       0       0       0       0       0       
      +0       0
  4618 ;;      Totals:         0       0       0       0       0       0       0       0       0       0       0       0       
      +0       0
  4619 ;;Total ram usage:        0 bytes
  4620 ;; Hardware stack levels used: 1
  4621 ;; Hardware stack levels required when called: 1
  4622 ;; This function calls:
  4623 ;;		i1_ccp1_enable
  4624 ;;		i1_ccp2_disable
  4625 ;; This function is called by:
  4626 ;;		_InterruptManager
  4627 ;; This function uses a non-reentrant model
  4628 ;;
  4629                           
  4630     0F37                     _ignition_disable:	
  4631                           ;psect for function _ignition_disable
  4632                           
  4633     0F37                     i1l1778:	
  4634                           ;incstack = 0
  4635                           ; Regs used in _ignition_disable: [wreg+status,2+status,0+pclath+cstack]
  4636                           
  4637                           
  4638                           ;main.c: 384:     ccp2_disable();
  4639     0F37  318F  270C  318F   	fcall	i1_ccp2_disable
  4640     0F3A                     i1l1780:
  4641                           
  4642                           ;main.c: 385:     LATC2 = (1);
  4643     0F3A  0140               	movlb	0	; select bank0
  4644     0F3B  151A               	bsf	26,2	;volatile
  4645     0F3C                     i1l1782:
  4646                           
  4647                           ;main.c: 386:     orev_counter = 0;
  4648     0F3C  01D1               	clrf	_orev_counter
  4649     0F3D                     i1l1784:
  4650                           
  4651                           ;main.c: 387:     ccp1_enable();
  4652     0F3D  318F  2725  318F   	fcall	i1_ccp1_enable
  4653     0F40                     i1l301:
  4654     0F40  0008               	return
  4655     0F41                     __end_of_ignition_disable:
  4656                           
  4657                           	psect	text18
  4658     0F0C                     __ptext18:	
  4659 ;; *************** function i1_ccp2_disable *****************
  4660 ;; Defined at:
  4661 ;;		line 425 in file "main.c"
  4662 ;; Parameters:    Size  Location     Type
  4663 ;;		None
  4664 ;; Auto vars:     Size  Location     Type
  4665 ;;		None
  4666 ;; Return value:  Size  Location     Type
  4667 ;;                  1    wreg      void 
  4668 ;; Registers used:
  4669 ;;		status,2
  4670 ;; Tracked objects:
  4671 ;;		On entry : 0/0
  4672 ;;		On exit  : 0/0
  4673 ;;		Unchanged: 0/0
  4674 ;; Data sizes:     COMMON   BANK0   BANK1   BANK2   BANK3   BANK4   BANK5   BANK6   BANK7   BANK8   BANK9  BANK10  BANK1
      +1  BANK12
  4675 ;;      Params:         0       0       0       0       0       0       0       0       0       0       0       0       
      +0       0
  4676 ;;      Locals:         0       0       0       0       0       0       0       0       0       0       0       0       
      +0       0
  4677 ;;      Temps:          0       0       0       0       0       0       0       0       0       0       0       0       
      +0       0
  4678 ;;      Totals:         0       0       0       0       0       0       0       0       0       0       0       0       
      +0       0
  4679 ;;Total ram usage:        0 bytes
  4680 ;; Hardware stack levels used: 1
  4681 ;; This function calls:
  4682 ;;		Nothing
  4683 ;; This function is called by:
  4684 ;;		_InterruptManager
  4685 ;;		_ignition_disable
  4686 ;; This function uses a non-reentrant model
  4687 ;;
  4688                           
  4689     0F0C                     i1_ccp2_disable:	
  4690                           ;psect for function i1_ccp2_disable
  4691                           
  4692     0F0C                     i1l1510:	
  4693                           ;incstack = 0
  4694                           ; Regs used in i1_ccp2_disable: [status,2]
  4695                           
  4696                           
  4697                           ;main.c: 426:     CCP2IE = 0;
  4698     0F0C  014E               	movlb	14	; select bank14
  4699     0F0D  1398               	bcf	24,7	;volatile
  4700     0F0E                     i1l1512:
  4701                           
  4702                           ;main.c: 427:     CCP2CON = 0;
  4703     0F0E  0146               	movlb	6	; select bank6
  4704     0F0F  0192               	clrf	18	;volatile
  4705     0F10                     i1l313:
  4706     0F10  0008               	return
  4707     0F11                     __end_ofi1_ccp2_disable:
  4708                           
  4709                           	psect	text19
  4710     0F25                     __ptext19:	
  4711 ;; *************** function i1_ccp1_enable *****************
  4712 ;; Defined at:
  4713 ;;		line 394 in file "main.c"
  4714 ;; Parameters:    Size  Location     Type
  4715 ;;		None
  4716 ;; Auto vars:     Size  Location     Type
  4717 ;;		None
  4718 ;; Return value:  Size  Location     Type
  4719 ;;                  1    wreg      void 
  4720 ;; Registers used:
  4721 ;;		wreg
  4722 ;; Tracked objects:
  4723 ;;		On entry : 0/0
  4724 ;;		On exit  : 0/0
  4725 ;;		Unchanged: 0/0
  4726 ;; Data sizes:     COMMON   BANK0   BANK1   BANK2   BANK3   BANK4   BANK5   BANK6   BANK7   BANK8   BANK9  BANK10  BANK1
      +1  BANK12
  4727 ;;      Params:         0       0       0       0       0       0       0       0       0       0       0       0       
      +0       0
  4728 ;;      Locals:         0       0       0       0       0       0       0       0       0       0       0       0       
      +0       0
  4729 ;;      Temps:          0       0       0       0       0       0       0       0       0       0       0       0       
      +0       0
  4730 ;;      Totals:         0       0       0       0       0       0       0       0       0       0       0       0       
      +0       0
  4731 ;;Total ram usage:        0 bytes
  4732 ;; Hardware stack levels used: 1
  4733 ;; This function calls:
  4734 ;;		Nothing
  4735 ;; This function is called by:
  4736 ;;		_InterruptManager
  4737 ;;		_ignition_disable
  4738 ;; This function uses a non-reentrant model
  4739 ;;
  4740                           
  4741     0F25                     i1_ccp1_enable:	
  4742                           ;psect for function i1_ccp1_enable
  4743                           
  4744     0F25                     i1l1504:	
  4745                           ;incstack = 0
  4746                           ; Regs used in i1_ccp1_enable: [wreg]
  4747                           
  4748                           
  4749                           ;main.c: 395:     CCP1IE = 0;
  4750     0F25  014E               	movlb	14	; select bank14
  4751     0F26  1397               	bcf	23,7	;volatile
  4752                           
  4753                           ;main.c: 396:     CCP1IF = 0;
  4754     0F27  138D               	bcf	13,7	;volatile
  4755     0F28                     i1l1506:
  4756                           
  4757                           ;main.c: 397:     CCP1CON = 0x84;
  4758     0F28  3084               	movlw	132
  4759     0F29  0146               	movlb	6	; select bank6
  4760     0F2A  008E               	movwf	14	;volatile
  4761     0F2B                     i1l1508:
  4762                           
  4763                           ;main.c: 398:     CCP1IE = 1;
  4764     0F2B  014E               	movlb	14	; select bank14
  4765     0F2C  1797               	bsf	23,7	;volatile
  4766     0F2D                     i1l304:
  4767     0F2D  0008               	return
  4768     0F2E                     __end_ofi1_ccp1_enable:
  4769                           
  4770                           	psect	text20
  4771     0F1C                     __ptext20:	
  4772 ;; *************** function _ccp2_enable *****************
  4773 ;; Defined at:
  4774 ;;		line 414 in file "main.c"
  4775 ;; Parameters:    Size  Location     Type
  4776 ;;		None
  4777 ;; Auto vars:     Size  Location     Type
  4778 ;;		None
  4779 ;; Return value:  Size  Location     Type
  4780 ;;                  1    wreg      void 
  4781 ;; Registers used:
  4782 ;;		wreg
  4783 ;; Tracked objects:
  4784 ;;		On entry : 0/0
  4785 ;;		On exit  : 0/0
  4786 ;;		Unchanged: 0/0
  4787 ;; Data sizes:     COMMON   BANK0   BANK1   BANK2   BANK3   BANK4   BANK5   BANK6   BANK7   BANK8   BANK9  BANK10  BANK1
      +1  BANK12
  4788 ;;      Params:         0       0       0       0       0       0       0       0       0       0       0       0       
      +0       0
  4789 ;;      Locals:         0       0       0       0       0       0       0       0       0       0       0       0       
      +0       0
  4790 ;;      Temps:          0       0       0       0       0       0       0       0       0       0       0       0       
      +0       0
  4791 ;;      Totals:         0       0       0       0       0       0       0       0       0       0       0       0       
      +0       0
  4792 ;;Total ram usage:        0 bytes
  4793 ;; Hardware stack levels used: 1
  4794 ;; This function calls:
  4795 ;;		Nothing
  4796 ;; This function is called by:
  4797 ;;		_InterruptManager
  4798 ;; This function uses a non-reentrant model
  4799 ;;
  4800                           
  4801     0F1C                     _ccp2_enable:	
  4802                           ;psect for function _ccp2_enable
  4803                           
  4804     0F1C                     i1l1772:	
  4805                           ;incstack = 0
  4806                           ; Regs used in _ccp2_enable: [wreg]
  4807                           
  4808                           
  4809                           ;main.c: 415:     CCP2IE = 0;
  4810     0F1C  014E               	movlb	14	; select bank14
  4811     0F1D  1398               	bcf	24,7	;volatile
  4812                           
  4813                           ;main.c: 416:     CCP2IF = 0;
  4814     0F1E  138E               	bcf	14,7	;volatile
  4815     0F1F                     i1l1774:
  4816                           
  4817                           ;main.c: 417:     CCP2CON = 0x88;
  4818     0F1F  3088               	movlw	136
  4819     0F20  0146               	movlb	6	; select bank6
  4820     0F21  0092               	movwf	18	;volatile
  4821     0F22                     i1l1776:
  4822                           
  4823                           ;main.c: 418:     CCP2IE = 1;
  4824     0F22  014E               	movlb	14	; select bank14
  4825     0F23  1798               	bsf	24,7	;volatile
  4826     0F24                     i1l310:
  4827     0F24  0008               	return
  4828     0F25                     __end_of_ccp2_enable:
  4829                           
  4830                           	psect	text21
  4831     0F07                     __ptext21:	
  4832 ;; *************** function _ccp1_disable *****************
  4833 ;; Defined at:
  4834 ;;		line 405 in file "main.c"
  4835 ;; Parameters:    Size  Location     Type
  4836 ;;		None
  4837 ;; Auto vars:     Size  Location     Type
  4838 ;;		None
  4839 ;; Return value:  Size  Location     Type
  4840 ;;                  1    wreg      void 
  4841 ;; Registers used:
  4842 ;;		status,2
  4843 ;; Tracked objects:
  4844 ;;		On entry : 0/0
  4845 ;;		On exit  : 0/0
  4846 ;;		Unchanged: 0/0
  4847 ;; Data sizes:     COMMON   BANK0   BANK1   BANK2   BANK3   BANK4   BANK5   BANK6   BANK7   BANK8   BANK9  BANK10  BANK1
      +1  BANK12
  4848 ;;      Params:         0       0       0       0       0       0       0       0       0       0       0       0       
      +0       0
  4849 ;;      Locals:         0       0       0       0       0       0       0       0       0       0       0       0       
      +0       0
  4850 ;;      Temps:          0       0       0       0       0       0       0       0       0       0       0       0       
      +0       0
  4851 ;;      Totals:         0       0       0       0       0       0       0       0       0       0       0       0       
      +0       0
  4852 ;;Total ram usage:        0 bytes
  4853 ;; Hardware stack levels used: 1
  4854 ;; This function calls:
  4855 ;;		Nothing
  4856 ;; This function is called by:
  4857 ;;		_InterruptManager
  4858 ;; This function uses a non-reentrant model
  4859 ;;
  4860                           
  4861     0F07                     _ccp1_disable:	
  4862                           ;psect for function _ccp1_disable
  4863                           
  4864     0F07                     i1l1768:	
  4865                           ;incstack = 0
  4866                           ; Regs used in _ccp1_disable: [status,2]
  4867                           
  4868                           
  4869                           ;main.c: 406:     CCP1IE = 0;
  4870     0F07  014E               	movlb	14	; select bank14
  4871     0F08  1397               	bcf	23,7	;volatile
  4872     0F09                     i1l1770:
  4873                           
  4874                           ;main.c: 407:     CCP1CON = 0;
  4875     0F09  0146               	movlb	6	; select bank6
  4876     0F0A  018E               	clrf	14	;volatile
  4877     0F0B                     i1l307:
  4878     0F0B  0008               	return
  4879     0F0C                     __end_of_ccp1_disable:
  4880     007E                     btemp	set	126	;btemp
  4881     007E                     int$flags	set	126
  4882     007E                     wtemp0	set	126
  4883     2161                     
  4884                           	psect	config
  4885                           
  4886                           ;Config register CONFIG1 @ 0x8007
  4887                           ;	External Oscillator Mode Selection bits
  4888                           ;	FEXTOSC = ECH, EC (external clock) 16 MHz and above
  4889                           ;	Power-up Default Value for COSC bits
  4890                           ;	RSTOSC = HFINTOSC_32MHZ, HFINTOSC (32 MHz)
  4891                           ;	Clock Out Enable bit
  4892                           ;	CLKOUTEN = OFF, CLKOUT function is disabled; I/O function on RA4
  4893                           ;	VDD Range Analog Calibration Selection bit
  4894                           ;	VDDAR = HI, Internal analog systems are calibrated for operation between VDD = 2.3V - 
      +                          5.5V
  4895     8007                     	org	32775
  4896     8007  3FCF               	dw	16335
  4897                           
  4898                           ;Config register CONFIG2 @ 0x8008
  4899                           ;	Master Clear Enable bit
  4900                           ;	MCLRE = EXTMCLR, If LVP = 0, MCLR pin is MCLR; If LVP = 1, RA3 pin function is MCLR
  4901                           ;	Power-up Timer Selection bits
  4902                           ;	PWRTS = PWRT_1, PWRT set at 1 ms
  4903                           ;	WDT Operating Mode bits
  4904                           ;	WDTE = SWDTEN, WDT enabled/disabled by SEN bit
  4905                           ;	Brown-out Reset Enable bits
  4906                           ;	BOREN = ON, Brown-out Reset Enabled, SBOREN bit is ignored
  4907                           ;	Brown-out Reset Voltage Selection bit
  4908                           ;	BORV = LO, Brown-out Reset Voltage (VBOR) set to 1.9V
  4909                           ;	PPSLOCKED One-Way Set Enable bit
  4910                           ;	PPS1WAY = ON, The PPSLOCKED bit can be set once after an unlocking sequence is execute
      +                          d; once PPSLOCKED is set, all future changes to PPS registers are prevented
  4911                           ;	Stack Overflow/Underflow Reset Enable bit
  4912                           ;	STVREN = ON, Stack Overflow or Underflow will cause a reset
  4913     8008                     	org	32776
  4914     8008  3FE9               	dw	16361
  4915                           
  4916                           ;Config register CONFIG4 @ 0x800A
  4917                           ;	Boot Block Size Selection bits
  4918                           ;	BBSIZE = BB512, 512 words boot block size
  4919                           ;	Boot Block Enable bit
  4920                           ;	BBEN = OFF, Boot Block is disabled
  4921                           ;	SAF Enable bit
  4922                           ;	SAFEN = OFF, SAF is disabled
  4923                           ;	Application Block Write Protection bit
  4924                           ;	WRTAPP = OFF, Application Block is not write-protected
  4925                           ;	Boot Block Write Protection bit
  4926                           ;	WRTB = OFF, Boot Block is not write-protected
  4927                           ;	Configuration Registers Write Protection bit
  4928                           ;	WRTC = OFF, Configuration Registers are not write-protected
  4929                           ;	Storage Area Flash (SAF) Write Protection bit
  4930                           ;	WRTSAF = OFF, SAF is not write-protected
  4931                           ;	Low Voltage Programming Enable bit
  4932                           ;	LVP = ON, Low Voltage programming enabled. MCLR/Vpp pin function is MCLR. MCLRE Config
      +                          uration bit is ignored.
  4933     800A                     	org	32778
  4934     800A  3FFF               	dw	16383
  4935                           
  4936                           ;Config register CONFIG5 @ 0x800B
  4937                           ;	User Program Flash Memory Code Protection bit
  4938                           ;	CP = OFF, User Program Flash Memory code protection is disabled
  4939     800B                     	org	32779
  4940     800B  3FFF               	dw	16383

Data Sizes:
    Strings     7
    Constant    26
    Data        397
    BSS         9
    Persistent  32
    Stack       0

Auto Spaces:
    Space          Size  Autos    Used
    COMMON           14     12      14
    BANK0            80     44      51
    BANK1            80     48      52
    BANK2            80      0       0
    BANK3            80      0       0
    BANK4            33      0       0
    BANK5             0      0       0
    BANK6             0      0       0
    BANK7             0      0       0
    BANK8             0      0       0
    BANK9             0      0       0
    BANK10            0      0       0
    BANK11            0      0       0
    BANK12            0      0       0

Pointer List with Targets:

    None.

Critical Paths under _main in COMMON

    None.

Critical Paths under _InterruptManager in COMMON

    i1_calc_map->i1___tmul
    i1___tmul->i1___wmul

Critical Paths under _main in BANK0

    None.

Critical Paths under _InterruptManager in BANK0

    _InterruptManager->i1_calc_map
    i1_calc_map->i1___tmul

Critical Paths under _main in BANK1

    _main->_calc_map
    _putch->_EUSART1_IsTxReady
    _putch->_EUSART1_Write
    _calc_map->___tmul
    ___tmul->___wmul

Critical Paths under _InterruptManager in BANK1

    None.

Critical Paths under _main in BANK2

    None.

Critical Paths under _InterruptManager in BANK2

    None.

Critical Paths under _main in BANK3

    None.

Critical Paths under _InterruptManager in BANK3

    None.

Critical Paths under _main in BANK4

    None.

Critical Paths under _InterruptManager in BANK4

    None.

Critical Paths under _main in BANK5

    None.

Critical Paths under _InterruptManager in BANK5

    None.

Critical Paths under _main in BANK6

    None.

Critical Paths under _InterruptManager in BANK6

    None.

Critical Paths under _main in BANK7

    None.

Critical Paths under _InterruptManager in BANK7

    None.

Critical Paths under _main in BANK8

    None.

Critical Paths under _InterruptManager in BANK8

    None.

Critical Paths under _main in BANK9

    None.

Critical Paths under _InterruptManager in BANK9

    None.

Critical Paths under _main in BANK10

    None.

Critical Paths under _InterruptManager in BANK10

    None.

Critical Paths under _main in BANK11

    None.

Critical Paths under _InterruptManager in BANK11

    None.

Critical Paths under _main in BANK12

    None.

Critical Paths under _InterruptManager in BANK12

    None.

Call Graph Tables:

 ---------------------------------------------------------------------------------
 (Depth) Function   	        Calls       Base Space   Used Autos Params    Refs
 ---------------------------------------------------------------------------------
 (0) _main                                                 0     0      0    2070
                           _calc_map
                        _ccp1_enable
                     _check_sw_state
                  _initialize_system
                              _putch
 ---------------------------------------------------------------------------------
 (1) _putch                                                1     1      0      68
                                              1 BANK1      1     1      0
                  _EUSART1_IsTxReady
                      _EUSART1_Write
 ---------------------------------------------------------------------------------
 (2) _EUSART1_Write                                        1     1      0      22
                                              0 BANK1      1     1      0
 ---------------------------------------------------------------------------------
 (2) _EUSART1_IsTxReady                                    1     1      0      24
                                              0 BANK1      1     1      0
 ---------------------------------------------------------------------------------
 (1) _initialize_system                                    0     0      0       0
                       _ccp2_disable
 ---------------------------------------------------------------------------------
 (2) _ccp2_disable                                         0     0      0       0
 ---------------------------------------------------------------------------------
 (1) _check_sw_state                                       2     2      0       0
                                              0 BANK1      2     2      0
 ---------------------------------------------------------------------------------
 (1) _ccp1_enable                                          0     0      0       0
 ---------------------------------------------------------------------------------
 (1) _calc_map                                            33    33      0    2002
                                             15 BANK1     33    33      0
                            ___lwdiv
                             ___tmul
                             ___wmul
 ---------------------------------------------------------------------------------
 (2) ___wmul                                               6     2      4     244
                                              0 BANK1      6     2      4
 ---------------------------------------------------------------------------------
 (2) ___tmul                                               9     3      6     244
                                              6 BANK1      9     3      6
                             ___wmul (ARG)
 ---------------------------------------------------------------------------------
 (2) ___lwdiv                                              8     4      4     566
                                              0 BANK1      8     4      4
 ---------------------------------------------------------------------------------
 Estimated maximum stack depth 2
 ---------------------------------------------------------------------------------
 (Depth) Function   	        Calls       Base Space   Used Autos Params    Refs
 ---------------------------------------------------------------------------------
 (3) _InterruptManager                                     8     8      0    1939
                                             36 BANK0      8     8      0
                       _ccp1_disable
                        _ccp2_enable
                   _ignition_disable
                          i1___lwdiv
                         i1_calc_map
                      i1_ccp1_enable
                     i1_ccp2_disable
 ---------------------------------------------------------------------------------
 (4) i1_calc_map                                          33    33      0    1554
                                              3 BANK0     33    33      0
                          i1___lwdiv
                           i1___tmul
                           i1___wmul
 ---------------------------------------------------------------------------------
 (5) i1___wmul                                             6     2      4     144
                                              0 COMMON     6     2      4
 ---------------------------------------------------------------------------------
 (5) i1___tmul                                             9     3      6     144
                                              6 COMMON     6     0      6
                                              0 BANK0      3     3      0
                           i1___wmul (ARG)
 ---------------------------------------------------------------------------------
 (5) i1___lwdiv                                            8     4      4     318
                                              0 COMMON     8     4      4
 ---------------------------------------------------------------------------------
 (4) _ignition_disable                                     0     0      0       0
                      i1_ccp1_enable
                     i1_ccp2_disable
 ---------------------------------------------------------------------------------
 (4) i1_ccp2_disable                                       0     0      0       0
 ---------------------------------------------------------------------------------
 (4) i1_ccp1_enable                                        0     0      0       0
 ---------------------------------------------------------------------------------
 (4) _ccp2_enable                                          0     0      0       0
 ---------------------------------------------------------------------------------
 (4) _ccp1_disable                                         0     0      0       0
 ---------------------------------------------------------------------------------
 Estimated maximum stack depth 5
 ---------------------------------------------------------------------------------

 Call Graph Graphs:

 _main (ROOT)
   _calc_map
     ___lwdiv
     ___tmul
       ___wmul (ARG)
     ___wmul
   _ccp1_enable
   _check_sw_state
   _initialize_system
     _ccp2_disable
   _putch
     _EUSART1_IsTxReady
     _EUSART1_Write

 _InterruptManager (ROOT)
   _ccp1_disable
   _ccp2_enable
   _ignition_disable
     i1_ccp1_enable
     i1_ccp2_disable
   i1___lwdiv
   i1_calc_map
     i1___lwdiv
     i1___tmul
       i1___wmul (ARG)
     i1___wmul
   i1_ccp1_enable
   i1_ccp2_disable

 Address spaces:
Name               Size   Autos  Total    Cost      Usage
BIGRAM             3F0      0       0       0        0.0%
NULL                 0      0       0       0        0.0%
CODE                 0      0       0       0        0.0%
BITCOMMON            E      0       0       1        0.0%
BITSFR0              0      0       0       1        0.0%
SFR0                 0      0       0       1        0.0%
COMMON               E      C       E       2      100.0%
BITSFR1              0      0       0       2        0.0%
SFR1                 0      0       0       2        0.0%
BITSFR2              0      0       0       3        0.0%
SFR2                 0      0       0       3        0.0%
STACK                0      0       0       3        0.0%
BITSFR3              0      0       0       4        0.0%
SFR3                 0      0       0       4        0.0%
ABS                  0      0      75       4        0.0%
BITBANK0            50      0       0       5        0.0%
BITSFR4              0      0       0       5        0.0%
SFR4                 0      0       0       5        0.0%
BANK0               50     2C      33       6       63.7%
BITSFR5              0      0       0       6        0.0%
SFR5                 0      0       0       6        0.0%
BITBANK1            50      0       0       7        0.0%
BITSFR6              0      0       0       7        0.0%
SFR6                 0      0       0       7        0.0%
BANK1               50     30      34       8       65.0%
BITSFR7              0      0       0       8        0.0%
SFR7                 0      0       0       8        0.0%
BITBANK2            50      0       0       9        0.0%
BITSFR8              0      0       0       9        0.0%
SFR8                 0      0       0       9        0.0%
BANK2               50      0       0      10        0.0%
BITSFR9              0      0       0      10        0.0%
SFR9                 0      0       0      10        0.0%
BITBANK3            50      0       0      11        0.0%
BITSFR10             0      0       0      11        0.0%
SFR10                0      0       0      11        0.0%
BANK3               50      0       0      12        0.0%
BITSFR11             0      0       0      12        0.0%
SFR11                0      0       0      12        0.0%
BITBANK4            50      0       0      13        0.0%
BITSFR12             0      0       0      13        0.0%
SFR12                0      0       0      13        0.0%
BANK4               21      0       0      14        0.0%
BITSFR13             0      0       0      14        0.0%
SFR13                0      0       0      14        0.0%
BITBANK5            50      0       0      15        0.0%
BITSFR14             0      0       0      15        0.0%
SFR14                0      0       0      15        0.0%
BITSFR15             0      0       0      16        0.0%
SFR15                0      0       0      16        0.0%
BANK5                0      0       0      16        0.0%
BITBANK6            50      0       0      17        0.0%
BITSFR16             0      0       0      17        0.0%
SFR16                0      0       0      17        0.0%
BITSFR17             0      0       0      18        0.0%
SFR17                0      0       0      18        0.0%
BANK6                0      0       0      18        0.0%
BITBANK7            50      0       0      19        0.0%
BITSFR18             0      0       0      19        0.0%
SFR18                0      0       0      19        0.0%
BITSFR19             0      0       0      20        0.0%
SFR19                0      0       0      20        0.0%
BANK7                0      0       0      20        0.0%
BITBANK8            50      0       0      21        0.0%
BITSFR20             0      0       0      21        0.0%
SFR20                0      0       0      21        0.0%
BITSFR21             0      0       0      22        0.0%
SFR21                0      0       0      22        0.0%
BANK8                0      0       0      22        0.0%
BITBANK9            50      0       0      23        0.0%
BITSFR22             0      0       0      23        0.0%
SFR22                0      0       0      23        0.0%
BITSFR23             0      0       0      24        0.0%
SFR23                0      0       0      24        0.0%
BANK9                0      0       0      24        0.0%
BITBANK10           50      0       0      25        0.0%
BITSFR24             0      0       0      25        0.0%
SFR24                0      0       0      25        0.0%
BITSFR25             0      0       0      26        0.0%
SFR25                0      0       0      26        0.0%
BANK10               0      0       0      26        0.0%
BITBANK11           50      0       0      27        0.0%
BITSFR26             0      0       0      27        0.0%
SFR26                0      0       0      27        0.0%
BITSFR27             0      0       0      28        0.0%
SFR27                0      0       0      28        0.0%
BANK11               0      0       0      28        0.0%
BITBANK12           30      0       0      29        0.0%
BITSFR28             0      0       0      29        0.0%
SFR28                0      0       0      29        0.0%
BITSFR29             0      0       0      30        0.0%
SFR29                0      0       0      30        0.0%
BANK12               0      0       0      30        0.0%
BITSFR30             0      0       0      31        0.0%
SFR30                0      0       0      31        0.0%
DATA                 0      0      75      31        0.0%
BITSFR31             0      0       0      32        0.0%
SFR31                0      0       0      32        0.0%
BITSFR32             0      0       0      33        0.0%
SFR32                0      0       0      33        0.0%
BITSFR33             0      0       0      34        0.0%
SFR33                0      0       0      34        0.0%
BITSFR34             0      0       0      35        0.0%
SFR34                0      0       0      35        0.0%
BITSFR35             0      0       0      36        0.0%
SFR35                0      0       0      36        0.0%
BITSFR36             0      0       0      37        0.0%
SFR36                0      0       0      37        0.0%
BITSFR37             0      0       0      38        0.0%
SFR37                0      0       0      38        0.0%
BITSFR38             0      0       0      39        0.0%
SFR38                0      0       0      39        0.0%
BITSFR39             0      0       0      40        0.0%
SFR39                0      0       0      40        0.0%
BITSFR40             0      0       0      41        0.0%
SFR40                0      0       0      41        0.0%
BITSFR41             0      0       0      42        0.0%
SFR41                0      0       0      42        0.0%
BITSFR42             0      0       0      43        0.0%
SFR42                0      0       0      43        0.0%
BITSFR43             0      0       0      44        0.0%
SFR43                0      0       0      44        0.0%
BITSFR44             0      0       0      45        0.0%
SFR44                0      0       0      45        0.0%
BITSFR45             0      0       0      46        0.0%
SFR45                0      0       0      46        0.0%
BITSFR46             0      0       0      47        0.0%
SFR46                0      0       0      47        0.0%
BITSFR47             0      0       0      48        0.0%
SFR47                0      0       0      48        0.0%
BITSFR48             0      0       0      49        0.0%
SFR48                0      0       0      49        0.0%
BITSFR49             0      0       0      50        0.0%
SFR49                0      0       0      50        0.0%
BITSFR50             0      0       0      51        0.0%
SFR50                0      0       0      51        0.0%
BITSFR51             0      0       0      52        0.0%
SFR51                0      0       0      52        0.0%
BITSFR52             0      0       0      53        0.0%
SFR52                0      0       0      53        0.0%
BITSFR53             0      0       0      54        0.0%
SFR53                0      0       0      54        0.0%
BITSFR54             0      0       0      55        0.0%
SFR54                0      0       0      55        0.0%
BITSFR55             0      0       0      56        0.0%
SFR55                0      0       0      56        0.0%
BITSFR56             0      0       0      57        0.0%
SFR56                0      0       0      57        0.0%
BITSFR57             0      0       0      58        0.0%
SFR57                0      0       0      58        0.0%
BITSFR58             0      0       0      59        0.0%
SFR58                0      0       0      59        0.0%
BITSFR59             0      0       0      60        0.0%
SFR59                0      0       0      60        0.0%
BITSFR60             0      0       0      61        0.0%
SFR60                0      0       0      61        0.0%
BITSFR61             0      0       0      62        0.0%
SFR61                0      0       0      62        0.0%
BITSFR62             0      0       0      63        0.0%
SFR62                0      0       0      63        0.0%
BITSFR63             0      0       0      64        0.0%
SFR63                0      0       0      64        0.0%


Microchip Technology PIC Macro Assembler V2.45 build 20230818022343 
Symbol Table                                                                                   Sat Feb 08 19:23:05 2025

                ??_InterruptManager 0044                 ___wmul@multiplicand 00A2  
                  i1___wmul@product 0074                          i1_calc_map 0190  
                               l304 0F36                                 l232 0F7A  
                               l224 0F68                                 l313 0F15  
                               l251 0516                                 l227 0F1B  
                               l316 0704                                 l262 075A  
                               l255 0706                                 l259 0716  
                               l392 07FE                                 l384 0FBE  
                               l386 0FD2                                 l664 0797  
                               _GIE 005F                                 _RA4 0064  
                               _RC5 0075                                 u800 0F75  
                               u801 0F74                                 u810 0FBA  
                               u811 0FB9                                 u910 0774  
                               u911 0773                                 u840 0FCE  
                               u905 0768                                 u841 0FCD  
                               u825 0FBF                                 u930 0783  
                               u850 07DF                                 u931 0782  
                               u851 07DE                                 u835 0FC4  
                               u925 0775                                 u950 0793  
                               u790 0F70                                 u951 0792  
                               u935 077F                                 u791 0F6F  
                               u880 07F8                                 u945 0789  
                               u881 07F7                                 u865 07E6  
                               u890 0764                                 u891 0763  
                               u875 07EC                                 _rpm 0052  
                               wreg 0009                        _ccp1_disable 0F07  
                      _ccp2_disable 0F11                                l1500 0793  
                              l1600 06CD                                l1440 0F78  
                              l1432 0F69                                l1450 0FB3  
                              l1610 06D7                                l1602 06CF  
                              l1434 0F6B                                l1460 0FCE  
                              l1452 0FB6                                l1700 03D9  
                              l1620 06E5                                l1612 06D9  
                              l1604 06D2                                l1436 0F70  
                              l1444 0F18                                l1470 07E5  
                              l1454 0FBA                                l1710 0418  
                              l1702 03DD                                l1446 0F11  
                              l1630 06EF                                l1622 06E7  
                              l1614 06DC                                l1606 06D4  
                              l1438 0F75                                l1480 075E  
                              l1472 07EB                                l1464 07D4  
                              l1456 0FC3                                l1720 043F  
                              l1712 041E                                l1704 03E3  
                              l1448 0F13                                l1640 06F9  
                              l1632 06F2                                l1624 06E8  
                              l1616 06DF                                l1608 06D5  
                              l1490 0774                                l1482 0764  
                              l1474 07F8                                l1466 07DB  
                              l1458 0FC8                                l1730 047D  
                              l1722 0443                                l1714 0422  
                              l1706 03E7                                l1650 06FE  
                              l1642 06FA                                l1634 06F5  
                              l1626 06EB                                l1618 06E2  
                              l1570 06A5                                l1492 0783  
                              l1484 0767                                l1468 07DF  
                              l1740 049C                                l1724 0470  
                              l1716 0435                                l1708 0414  
                              l1652 06FF                                l1644 06FB  
                              l1636 06F7                                l1628 06ED  
                              l1580 06AB                                l1572 06A6  
                              l1494 0787                                l1486 076C  
                              l1478 075B                                l1750 050C  
                              l1734 0484                                l1726 0474  
                              l1718 0439                                l1670 0725  
                              l1662 070B                                l1654 0702  
                              l1646 06FC                                l1638 06F8  
                              l1590 06C4                                l1582 06AC  
                              l1574 06A8                                l1496 0788  
                              l1488 0770                                l1752 0510  
                              l1744 049E                                l1736 0497  
                              l1728 047A                                l1680 0375  
                              l1672 0748                                l1664 0719  
                              l1656 0705                                l1648 06FD  
                              l1592 06C6                                l1584 06AD  
                              l1576 06A9                                l1568 06A0  
                              l1760 0F5B                                l1498 078D  
                              l1746 04BE                                l1690 0391  
                              l1682 0377                                l1754 0F2E  
                              l1674 074A                                l1658 0709  
                              l1594 06C8                                l1586 06AF  
                              l1578 06AA                                l1762 0F5B  
                              l1748 04F9                                l1692 03A1  
                              l1684 0379                                l1676 0358  
                              l1756 0F31                                l1668 071B  
                              l1596 06C9                                l1588 06B0  
                              l1764 0F63                                l1694 03B3  
                              l1686 037D                                l1678 0362  
                              l1758 0F34                                l1598 06CB  
                              l1870 0F83                                l1696 03C3  
                              l1688 038D                                l1872 0F86  
                              l1864 0F7B                                l1698 03C6  
                              l1874 0F89                                l1866 0F7E  
                              l1876 0F8D                                l1868 0F80  
                              STR_1 1002                                u1200 0516  
                              u1201 0515                                u1210 0F63  
                              u1115 072A                                u1211 0F62  
                              u1140 03E3                                u1141 03E2  
                              u1125 073E                                u1150 041E  
                              u1151 041D                                u1135 0751  
                              u1160 043F                                u1161 043E  
                              u1170 047A                                u1171 0479  
                              u1180 0483                                u1181 0482  
                              _LATA 0018                                u1190 04F1  
                              _LATB 0019                                _LATC 001A  
                              u1195 04EE                                _PEIE 005E  
                              _PIR0 070C                                _PIR1 070D  
                              _PIR2 070E                                _TMR1 020C  
                              _TRMT 08F1                       _EUSART1_Write 0F16  
                              _main 0F7B                       i1_ccp1_enable 0F25  
                              _test 007C                                fsr0h 0005  
                              fsr1h 0007                                indf0 0000  
                              fsr0l 0004                                fsr1l 0006  
                              btemp 007E                                start 015A  
                    _check_sw_state 0705                         i1calc_map@a 0043  
       __end_of_adv_start_rpm_table 1021                               ?_main 0070  
                             _CCPR1 030C                               _CCPR2 0310  
                             _T1CLK 0211                               _T1CON 020E  
                             _LATA0 00C0                               _LATC1 00D1  
                             _LATC2 00D2                               _IOCIE 38B4  
                   __end_of___lwdiv 0798                               i1l301 0F40  
                             i1l310 0F24                               i1l304 0F2D  
                             i1l313 0F10                               i1l307 0F0B  
                             i1l251 0357                               i1l276 00AD  
                             i1l285 00D6                               i1l392 0FFF  
                             i1l384 0F9E                               i1l297 0157  
                             i1l386 0FB2                               i1l298 0158  
                             i1l664 07D3                               _OSCEN 0891  
                             _TMR1H 020D                               _TMR1L 020C  
                             _PORTA 000C                               _PORTB 000D  
                             _PORTC 000E                               _TRISA 0012  
                             _TRISB 0013                               _TRISC 0014  
                             u96_20 0F9A                               u96_21 0F99  
                             u97_25 0F9F                               u98_25 0FA4  
                             u99_20 0FAE                               u99_21 0FAD  
                             _putch 0F59                      ?_EUSART1_Write 0070  
                    i1_ccp2_disable 0F0C                    __end_ofi1___tmul 1000  
                  __end_ofi1___wmul 0FB3                      ?i1_ccp1_enable 0070  
            __end_of_check_sw_state 075B                               status 0003  
               i1___wmul@multiplier 0070                               wtemp0 007E  
                   __initialization 015C                     i1calc_map@temp1 0032  
                      __end_of_main 0F94                         ?i1_calc_map 0070  
                            ??_main 00D0              __end_ofi1_ccp2_disable 0F11  
                            _CCP1IE 38BF                              _CCP1IF 386F  
                            _CCP2IE 38C7                              _CCP2IF 3877  
             _EUSART1_IsTxReady$282 00A0                              _ANSELA 1F38  
                            ?_putch 0070                              _ANSELB 1F43  
                            _ANSELC 1F4E                              _IOCAF2 F9FA  
                            _IOCAN2 F9F2                              _RC1PPS 1F21  
                            _RC1STA 011D                              u100_20 0FDE  
                            u100_21 0FDD                              u101_25 0FE6  
                            u110_20 07CF                              i1l2000 0145  
                            u110_21 07CE                              i1l2002 014E  
                            _RB6PPS 1F1E                              i1l2004 0150  
                            u102_25 0FEC                              i1l2006 0152  
                            u103_20 0FF8                              i1l2008 0155  
                            u103_21 0FF7                              i1l1510 0F0C  
                            i1l1504 0F25                              i1l1512 0F0E  
                            u104_20 07A0                              i1l1520 0FA3  
                            u104_21 079F                              i1l1506 0F28  
                            i1l1530 0FDA                              i1l1522 0FA8  
                            i1l1514 0F94                              i1l1508 0F2B  
                            i1l1532 0FDE                              i1l1524 0FAE  
                            i1l1516 0F96                              i1l1550 07A8  
                            i1l1542 0798                              i1l1534 0FE5  
                            i1l1518 0F9A                              i1l1560 07C4  
                            i1l1552 07AC                              i1l1544 079A  
                            i1l1536 0FEB                              i1l1528 0FD3  
                            i1l1800 01D0                              i1l1562 07C9  
                            i1l1554 07B0                              i1l1546 07A0  
                            i1l1538 0FF8                              i1l1810 021A  
                            i1l1802 01E2                              i1l1556 07BF  
                            i1l1548 07A3                              i1l1564 07CF  
                            i1l1820 0259                              i1l1812 021E  
                            i1l1804 01F4                              i1l1900 004D  
                            u105_25 07A4                              i1l1558 07C3  
                            i1l1830 0280                              i1l1822 025F  
                            i1l1814 0224                              i1l1806 0204  
                            i1l1910 0071                              i1l1902 0060  
                            u106_20 07B0                              i1l1840 02BE  
                            i1l1832 0284                              i1l1824 0263  
                            i1l1816 0228                              u122_20 0224  
                            i1l1808 0207                              i1l1920 0082  
                            i1l1912 0074                              i1l1904 0068  
                            u130_20 0011                              u106_21 07AF  
                            u122_21 0223                              u130_21 0010  
                            i1l1770 0F09                              i1l1850 02DD  
                            i1l1834 02B1                              i1l1826 0276  
                            i1l1818 0255                              i1l1922 0088  
                            i1l1906 006C                              i1l1914 0077  
                            i1l1772 0F1C                              i1l1780 0F3A  
                            i1l1860 034D                              i1l1844 02C5  
                            i1l1836 02B5                              i1l1828 027A  
                            i1l1940 00B9                              i1l1932 00A6  
                            i1l1924 0091                              i1l1916 007A  
                            i1l1908 006F                              i1l1774 0F1F  
                            i1l1782 0F3C                              i1l1862 0351  
                            i1l1854 02DF                              i1l1846 02D8  
                            i1l1838 02BB                              i1l1790 01B2  
                            i1l1942 00BB                              i1l1926 0095  
                            i1l1918 007C                              i1l1768 0F07  
                            i1l1776 0F22                              i1l1784 0F3D  
                            i1l1856 02FF                              u123_20 025F  
                            i1l1792 01B4                              i1l1960 00DE  
                            i1l1952 00CF                              i1l1944 00C1  
                            i1l1928 009B                              i1l1936 00AD  
                            u131_20 0033                              i1l1880 000B  
                            u123_21 025E                              u131_21 0032  
                            i1l1778 0F37                              i1l1858 033A  
                            i1l1794 01B6                              i1l1786 0190  
                            i1l1970 00EB                              i1l1962 00DF  
                            i1l1938 00B3                              i1l1946 00C3  
                            i1l1890 0019                              i1l1882 0011  
                            i1l1796 01BA                              i1l1788 019B  
                            i1l1980 0102                              i1l1972 00EE  
                            i1l1964 00E2                              i1l1948 00C8  
                            i1l1892 002D                              i1l1884 0013  
                            i1l1956 00D6                              u107_25 07B1  
                            i1l1798 01CC                              i1l1990 0132  
                            i1l1982 0108                              i1l1974 00F3  
                            i1l1958 00DB                              i1l1894 0033  
                            i1l1886 0015                              i1l1966 00E4  
                            i1l1878 0006                              u108_20 07BF  
                            u124_20 0280                              i1l1992 0139  
                            i1l1984 0116                              i1l1976 00FA  
                            i1l1968 00E8                              u140_20 00B3  
                            i1l1896 0039                              u132_20 0039  
                            i1l1888 0016                              u108_21 07BE  
                            u124_21 027F                              u140_21 00B2  
                            u132_21 0038                              i1l1986 012E  
                            i1l1994 013C                              i1l1978 00FD  
                            i1l1898 004C                              i1l1988 012F  
                            i1l1996 013E                              u108_25 07BB  
                            i1l1998 0143                              u125_20 02BB  
                            u141_20 00B9                              u133_20 0060  
                            u125_21 02BA                              u141_21 00B8  
                            u133_21 005F                              u109_25 07C5  
                            u133_25 005C                              u126_20 02C4  
                            u150_20 0108                              u142_20 00C1  
                            u134_20 0082                              u126_21 02C3  
                            u150_21 0107                              u142_21 00C0  
                            u134_21 0081                              u127_20 0332  
                            u151_20 0116                              u143_20 00C8  
                            u135_20 0088                              u151_21 0115  
                            u143_21 00C7                              u135_21 0087  
                            u127_25 032F                              u128_20 0357  
                            u152_20 012E                              u144_20 00CE  
                            u136_20 0091                              u128_21 0356  
                            u152_21 012D                              u144_21 00CD  
                            u136_21 0090                              _INLVLA 1F3C  
                            _INLVLB 1F47                              _INLVLC 1F52  
                            u152_25 012A                              u153_20 0139  
                            u145_20 00D5                              u137_20 009B  
                            u129_20 000B                              u153_21 0138  
                            u145_21 00D4                              u137_21 009A  
                            u129_21 000A                              u154_20 0143  
                            u146_20 00DB                              u138_20 00A5  
                            u154_21 0142                              u146_21 00DA  
                            u138_21 00A4                              u147_20 00E8  
                            u139_20 00AC                              u147_21 00E7  
                            u139_21 00AB                              u155_27 0072  
                            u148_20 00FA                              u148_21 00F9  
                            u156_27 00E9                              u149_20 0102  
                            u149_21 0101                              _OSCFRQ 0893  
                  __end_of_calc_map 0517                              _RX1PPS 1ECB  
                            _TMR1IE 38BD                              _TMR1IF 386D  
                            _TMR1ON 1070                              _TX1REG 011A  
                            _WDTCON 080C                              _TX1STA 011E  
                   ?_check_sw_state 0070                              ___tmul 07D4  
                            ___wmul 0FB3                           ??___lwdiv 00A4  
                     _max_adv_table 1011                        __pdataBIGRAM 2161  
                 __end_ofi1___lwdiv 07D4                    _ignition_disable 0F37  
             i1___tmul@multiplicand 0079                     ??_EUSART1_Write 00A0  
                   ?i1_ccp2_disable 0070                     ??i1_ccp1_enable 0070  
           __end_of__initialization 018C                      __pcstackCOMMON 0070  
                      __pidataBANK1 0F03                       __end_of_putch 0F69  
                     i1calc_map@p1x 003F                       i1calc_map@p1y 0037  
                     i1calc_map@p2x 0040                       i1calc_map@p2y 0039  
                     i1calc_map@p3x 0041                       i1calc_map@p3y 003B  
                     i1calc_map@p4x 0042                       i1calc_map@p4y 003D  
                         ?i1___tmul 0076                           ?i1___wmul 0070  
               i1___tmul@multiplier 0076                             ??_putch 00A1  
                        __pbssBANK0 004C                      _deg2time_coeff 2161  
                     ??_ccp1_enable 00A0                       ??_ccp2_enable 0070  
                        __pmaintext 0F7B                             ?___tmul 00A6  
                           ?___wmul 00A0                          __pintentry 0004  
                           _CCP1CAP 030F                             _CCP2CAP 0313  
                           _CCP1CON 030E                             _CCP2CON 0312  
                           _CCP1PPS 1EA1                             _CCP2PPS 1EA2  
                        ??i1___tmul 007C                          ??i1___wmul 0074  
                         ?_calc_map 0070                          _ig_counter 004C  
                           _SP1BRGH 011C                             _SP1BRGL 011B  
                           _OSCTUNE 0892                             _PPSLOCK 1E8F  
                 _initialize_system 06A0                       _min_ret_table 1009  
                ?_initialize_system 0070                 __end_of_ccp1_enable 0F37  
               __end_of_ccp2_enable 0F25                             ___lwdiv 075B  
               ??_initialize_system 00A0                        ??i1_calc_map 0023  
                           __ptext1 0F59                             __ptext2 0F16  
                           __ptext3 0F69                             __ptext4 06A0  
                           __ptext5 0F11                             __ptext6 0705  
                           __ptext7 0F2E                             __ptext8 0358  
                           __ptext9 0FB3                          ??_calc_map 00AF  
                           _map_sel 007D                   i1___lwdiv@divisor 0070  
                           _sw1_pos 00D3                             _sw2_pos 00D2  
                           _sw3_pos 00D1                             _sw4_pos 00D0  
                 i1___lwdiv@counter 0077               i1calc_map@coeff_p1_p2 0035  
             i1calc_map@coeff_p3_p4 0036               __end_of_numerator_rpm 1002  
                  ??_check_sw_state 00A0                             clrloop0 0F42  
              end_of_initialization 018C           __end_of_initialize_system 0705  
                           init_ram 0F4D                             initloop 0F4E  
                __end_ofi1_calc_map 0358            __end_of_ignition_disable 0F41  
             i1___wmul@multiplicand 0072                           _PORTBbits 000D  
                         _PORTCbits 000E                    _InterruptManager 0004  
                  ??i1_ccp2_disable 0070                        calc_map@temp 00BB  
                         i1___lwdiv 0798                 EUSART1_Write@txData 00A0  
                       _ccp1_enable 0F2E                         _ccp2_enable 0F1C  
                     __pidataBIGRAM 0517                      __end_of___tmul 07FF  
                    __end_of___wmul 0FD3                 start_initialization 015C  
                     ?_ccp1_disable 0070                      i1calc_map@temp 002F  
                     ?_ccp2_disable 0070                          ?i1___lwdiv 0070  
                       putch@txData 00A1               __end_of_EUSART1_Write 0F1C  
             __end_ofi1_ccp1_enable 0F2E                            ??___tmul 00AC  
                          ??___wmul 00A4                         __pdataBANK1 00D0  
                    ___tmul@product 00AC                         __pbssBIGRAM 22EA  
                    ??_ccp1_disable 0070                         __pbssCOMMON 007C  
                         ___latbits 0002                       __pcstackBANK0 0020  
                     __pcstackBANK1 00A0                      ??_ccp2_disable 00A0  
                    _revlimit_state 004F          __end_of_max_adv_grad_table 101D  
                  ___lwdiv@dividend 00A2                 _adv_start_rpm_table 101D  
                          ?___lwdiv 00A0                           calc_map@a 00CF  
                          _BAUD1CON 011F                   _EUSART1_IsTxReady 0F69  
                  ___lwdiv@quotient 00A5                         ??i1___lwdiv 0074  
                ?_EUSART1_IsTxReady 0070                      ___wmul@product 00A4  
               ??_EUSART1_IsTxReady 00A0            __end_of_InterruptManager 015A  
                         clear_ram0 0F41                   ?_ignition_disable 0070  
                          _PIR1bits 070D                            _EG_state 0050  
                          _IG_table 22EA                  ??_ignition_disable 0070  
                       calc_map@p1x 00CB                         calc_map@p1y 00C3  
                       calc_map@p2x 00CC                         calc_map@p2y 00C5  
                       calc_map@p3x 00CD                         calc_map@p3y 00C7  
                       calc_map@p4x 00CE                         calc_map@p4y 00C9  
             __end_of_max_adv_table 1019                           _pwj_state 004E  
                          i1___tmul 0FD3                   ___wmul@multiplier 00A0  
                          i1___wmul 0F94           __end_of_EUSART1_IsTxReady 0F7B  
               ___tmul@multiplicand 00A9            InterruptManager@t1_count 0048  
                      ?_ccp1_enable 0070                        ?_ccp2_enable 0070  
InterruptManager@pu1_2_period_count 004A                __end_of_ccp1_disable 0F0C  
              __end_of_ccp2_disable 0F16                            _calc_map 0358  
                   ___lwdiv@divisor 00A0                     ___lwdiv@counter 00A7  
                          __ptext10 07D4                            __ptext11 075B  
                          __ptext20 0F1C                            __ptext21 0F07  
                          __ptext13 0190                            __ptext14 0F94  
                          __ptext15 0FD3                            __ptext16 0798  
                          __ptext17 0F37                            __ptext18 0F0C  
                          __ptext19 0F25                  i1___lwdiv@dividend 0072  
                          int$flags 007E                  i1___lwdiv@quotient 0075  
                      _orev_counter 0051                       _numerator_rpm 1000  
                          intlevel1 0000                    i1___tmul@product 0020  
             __end_of_min_ret_table 1011                         _PPSLOCKbits 1E8F  
                 ___tmul@multiplier 00A6                       __pstringtext1 1009  
                     __pstringtext2 1011                       __pstringtext3 1019  
                     __pstringtext4 101D                       __pstringtext5 1000  
                     __pstringtext6 0000                  _max_adv_grad_table 1019  
               calc_map@coeff_p1_p2 00C1                 calc_map@coeff_p3_p4 00C2  
                        _TX1STAbits 011E                       calc_map@temp1 00BE  
                 ?_InterruptManager 0070  
